
H:/Workspace/ARC2/TP8/graphlib.elf:     file format elf32-littlenios2
H:/Workspace/ARC2/TP8/graphlib.elf
architecture: nios2, flags 0x00000112:
EXEC_P, HAS_SYMS, D_PAGED
start address 0x00000168

Program Header:
    LOAD off    0x00001000 vaddr 0x00000000 paddr 0x00000000 align 2**12
         filesz 0x00000020 memsz 0x00000020 flags r-x
    LOAD off    0x00001020 vaddr 0x00000020 paddr 0x00000020 align 2**12
         filesz 0x0002da4c memsz 0x0002dba8 flags rwx

Sections:
Idx Name          Size      VMA       LMA       File off  Algn
  0 .entry        00000020  00000000  00000000  00001000  2**5
                  CONTENTS, ALLOC, LOAD, READONLY, CODE
  1 .exceptions   00000148  00000020  00000020  00001020  2**2
                  CONTENTS, ALLOC, LOAD, READONLY, CODE
  2 .text         0000569c  00000168  00000168  00001168  2**2
                  CONTENTS, ALLOC, LOAD, READONLY, CODE
  3 .rodata       0000035c  00005804  00005804  00006804  2**2
                  CONTENTS, ALLOC, LOAD, READONLY, DATA
  4 .rwdata       00027f0c  00005b60  00005b60  00006b60  2**2
                  CONTENTS, ALLOC, LOAD, DATA, SMALL_DATA
  5 .bss          0000015c  0002da6c  0002da6c  0002ea6c  2**2
                  ALLOC, SMALL_DATA
  6 .comment      00000026  00000000  00000000  0002ea6c  2**0
                  CONTENTS, READONLY
  7 .debug_aranges 00000958  00000000  00000000  0002ea98  2**3
                  CONTENTS, READONLY, DEBUGGING
  8 .debug_pubnames 000015a5  00000000  00000000  0002f3f0  2**0
                  CONTENTS, READONLY, DEBUGGING
  9 .debug_info   00018e03  00000000  00000000  00030995  2**0
                  CONTENTS, READONLY, DEBUGGING
 10 .debug_abbrev 00005ad4  00000000  00000000  00049798  2**0
                  CONTENTS, READONLY, DEBUGGING
 11 .debug_line   0000db5f  00000000  00000000  0004f26c  2**0
                  CONTENTS, READONLY, DEBUGGING
 12 .debug_frame  00001378  00000000  00000000  0005cdcc  2**2
                  CONTENTS, READONLY, DEBUGGING
 13 .debug_str    00002abb  00000000  00000000  0005e144  2**0
                  CONTENTS, READONLY, DEBUGGING
 14 .debug_loc    00005a40  00000000  00000000  00060bff  2**0
                  CONTENTS, READONLY, DEBUGGING
 15 .debug_alt_sim_info 00000020  00000000  00000000  00066640  2**2
                  CONTENTS, READONLY, DEBUGGING
 16 .debug_ranges 000002b0  00000000  00000000  00066660  2**3
                  CONTENTS, READONLY, DEBUGGING
 17 .thread_model 00000003  00000000  00000000  00069a10  2**0
                  CONTENTS, READONLY
 18 .cpu          00000003  00000000  00000000  00069a13  2**0
                  CONTENTS, READONLY
 19 .qsys         00000001  00000000  00000000  00069a16  2**0
                  CONTENTS, READONLY
 20 .simulation_enabled 00000001  00000000  00000000  00069a17  2**0
                  CONTENTS, READONLY
 21 .sysid_hash   00000004  00000000  00000000  00069a18  2**0
                  CONTENTS, READONLY
 22 .sysid_base   00000004  00000000  00000000  00069a1c  2**0
                  CONTENTS, READONLY
 23 .sysid_time   00000004  00000000  00000000  00069a20  2**0
                  CONTENTS, READONLY
 24 .stderr_dev   00000009  00000000  00000000  00069a24  2**0
                  CONTENTS, READONLY
 25 .stdin_dev    00000009  00000000  00000000  00069a2d  2**0
                  CONTENTS, READONLY
 26 .stdout_dev   00000009  00000000  00000000  00069a36  2**0
                  CONTENTS, READONLY
 27 .sopc_system_name 0000000b  00000000  00000000  00069a3f  2**0
                  CONTENTS, READONLY
 28 .jdi          00004996  00000000  00000000  00069a4a  2**0
                  CONTENTS, READONLY
 29 .sopcinfo     000bf100  00000000  00000000  0006e3e0  2**0
                  CONTENTS, READONLY
SYMBOL TABLE:
00000000 l    d  .entry	00000000 .entry
00000020 l    d  .exceptions	00000000 .exceptions
00000168 l    d  .text	00000000 .text
00005804 l    d  .rodata	00000000 .rodata
00005b60 l    d  .rwdata	00000000 .rwdata
0002da6c l    d  .bss	00000000 .bss
00000000 l    d  .comment	00000000 .comment
00000000 l    d  .debug_aranges	00000000 .debug_aranges
00000000 l    d  .debug_pubnames	00000000 .debug_pubnames
00000000 l    d  .debug_info	00000000 .debug_info
00000000 l    d  .debug_abbrev	00000000 .debug_abbrev
00000000 l    d  .debug_line	00000000 .debug_line
00000000 l    d  .debug_frame	00000000 .debug_frame
00000000 l    d  .debug_str	00000000 .debug_str
00000000 l    d  .debug_loc	00000000 .debug_loc
00000000 l    d  .debug_alt_sim_info	00000000 .debug_alt_sim_info
00000000 l    d  .debug_ranges	00000000 .debug_ranges
000001a0 l       .text	00000000 alt_after_alt_main
00000000 l    df *ABS*	00000000 alt_irq_handler.c
00000000 l    df *ABS*	00000000 graphlib.c
00000000 l    df *ABS*	00000000 init.c
00000000 l    df *ABS*	00000000 main.c
00000430 l     F .text	00000020 TIMER_ISR
00000450 l     F .text	0000008c MOUSE_ISR
00000000 l    df *ABS*	00000000 mouse.c
00000000 l    df *ABS*	00000000 memcpy.c
00000000 l    df *ABS*	00000000 alt_irq_register.c
00000000 l    df *ABS*	00000000 alt_irq_vars.c
00000000 l    df *ABS*	00000000 alt_load.c
00000000 l    df *ABS*	00000000 alt_main.c
00000000 l    df *ABS*	00000000 alt_printf.c
00000000 l    df *ABS*	00000000 alt_putchar.c
00000000 l    df *ABS*	00000000 alt_sys_init.c
0002bd24 l     O .rwdata	00001060 JTAG_UART
0002cd84 l     O .rwdata	00000030 AV_Config
0002cdb4 l     O .rwdata	00000030 Audio
0002cde4 l     O .rwdata	0000002c Char_LCD_16x2
0002ce10 l     O .rwdata	0000002c Expansion_JP1
0002ce3c l     O .rwdata	0000002c Expansion_JP2
0002ce68 l     O .rwdata	0000002c Green_LEDs
0002ce94 l     O .rwdata	0000002c HEX3_HEX0
0002cec0 l     O .rwdata	0000002c HEX7_HEX4
0002ceec l     O .rwdata	0000002c Pushbuttons
0002cf18 l     O .rwdata	0000002c Red_LEDs
0002cf44 l     O .rwdata	0000002c Slider_Switches
0002cf70 l     O .rwdata	00000038 PS2_Port
0002cfa8 l     O .rwdata	0000002c Serial_Port
0002cfd4 l     O .rwdata	00000048 VGA_Char_Buffer
0002d01c l     O .rwdata	00000054 VGA_Pixel_Buffer
00000000 l    df *ABS*	00000000 altera_avalon_jtag_uart_fd.c
00000000 l    df *ABS*	00000000 altera_avalon_jtag_uart_init.c
000010e4 l     F .text	00000054 altera_avalon_jtag_uart_timeout
000011b0 l     F .text	00000134 altera_avalon_jtag_uart_irq
00000000 l    df *ABS*	00000000 altera_avalon_jtag_uart_ioctl.c
00000000 l    df *ABS*	00000000 altera_avalon_jtag_uart_read.c
00000000 l    df *ABS*	00000000 altera_avalon_jtag_uart_write.c
00000000 l    df *ABS*	00000000 altera_avalon_timer_sc.c
00001680 l     F .text	0000003c alt_avalon_timer_sc_irq
00000000 l    df *ABS*	00000000 altera_up_avalon_character_lcd.c
00000000 l    df *ABS*	00000000 altera_up_avalon_ps2.c
00000000 l    df *ABS*	00000000 altera_up_avalon_rs232.c
00000000 l    df *ABS*	00000000 altera_up_avalon_video_character_buffer_with_dma.c
00000000 l    df *ABS*	00000000 altera_up_avalon_video_pixel_buffer_dma.c
00000000 l    df *ABS*	00000000 alt_alarm_start.c
00000000 l    df *ABS*	00000000 alt_close.c
00000000 l    df *ABS*	00000000 alt_dcache_flush_all.c
00000000 l    df *ABS*	00000000 alt_dev.c
00002c60 l     F .text	00000008 alt_dev_null_write
00000000 l    df *ABS*	00000000 alt_dev_llist_insert.c
00000000 l    df *ABS*	00000000 alt_errno.c
00000000 l    df *ABS*	00000000 alt_find_dev.c
00000000 l    df *ABS*	00000000 alt_icache_flush_all.c
00000000 l    df *ABS*	00000000 alt_io_redirect.c
00002d68 l     F .text	00000064 alt_open_fd
00000000 l    df *ABS*	00000000 alt_open.c
00000000 l    df *ABS*	00000000 alt_release_fd.c
00000000 l    df *ABS*	00000000 alt_tick.c
00000000 l    df *ABS*	00000000 altera_nios2_qsys_irq.c
00000000 l    df *ABS*	00000000 alt_find_file.c
00000000 l    df *ABS*	00000000 alt_get_fd.c
00000000 l    df *ABS*	00000000 alt_icache_flush.c
00000000 l    df *ABS*	00000000 exit.c
00000000 l    df *ABS*	00000000 impure.c
0002d218 l     O .rwdata	00000400 impure_data
00000000 l    df *ABS*	00000000 int_errno.c
00000000 l    df *ABS*	00000000 memcmp.c
00000000 l    df *ABS*	00000000 putc.c
00000000 l    df *ABS*	00000000 strcmp.c
00000000 l    df *ABS*	00000000 strlen.c
00000000 l    df *ABS*	00000000 wbuf.c
00000000 l    df *ABS*	00000000 wsetup.c
00000000 l    df *ABS*	00000000 __call_atexit.c
000038a0 l     F .text	00000004 register_fini
00000000 l    df *ABS*	00000000 fflush.c
00000000 l    df *ABS*	00000000 findfp.c
00003c84 l     F .text	00000058 std
00003d90 l     F .text	00000008 __fp_lock
00003d98 l     F .text	00000008 __fp_unlock
00000000 l    df *ABS*	00000000 mallocr.c
00000000 l    df *ABS*	00000000 fwalk.c
00000000 l    df *ABS*	00000000 makebuf.c
00000000 l    df *ABS*	00000000 mallocr.c
00000000 l    df *ABS*	00000000 memset.c
00000000 l    df *ABS*	00000000 sbrkr.c
00000000 l    df *ABS*	00000000 stdio.c
00000000 l    df *ABS*	00000000 writer.c
00000000 l    df *ABS*	00000000 closer.c
00000000 l    df *ABS*	00000000 fclose.c
00000000 l    df *ABS*	00000000 fstatr.c
00000000 l    df *ABS*	00000000 isattyr.c
00000000 l    df *ABS*	00000000 lseekr.c
00000000 l    df *ABS*	00000000 readr.c
00000000 l    df *ABS*	00000000 alt_exit.c
00000000 l    df *ABS*	00000000 alt_fstat.c
00000000 l    df *ABS*	00000000 alt_isatty.c
00000000 l    df *ABS*	00000000 alt_lseek.c
00000000 l    df *ABS*	00000000 alt_malloc_lock.c
00000000 l    df *ABS*	00000000 alt_read.c
00000000 l    df *ABS*	00000000 alt_sbrk.c
0002da68 l     O .rwdata	00000004 heap_end
00000000 l    df *ABS*	00000000 alt_write.c
000004f4 g     F .text	00000010 activer_interruptions
000052ac g     F .text	00000070 _isatty_r
00000af4 g     F .text	00000050 alt_main
000022e4 g     F .text	00000194 alt_up_pixel_buffer_dma_draw_vline
00001d1c g     F .text	0000001c alt_up_ps2_disable_read_interrupt
0002dac8 g     O .bss	00000100 alt_irq
0000531c g     F .text	00000078 _lseek_r
00005b60 g       *ABS*	00000000 __flash_rwdata_start
00001780 g     F .text	00000010 alt_up_character_lcd_send_cmd
0002dbc8 g       *ABS*	00000000 __alt_heap_start
00004ee8 g     F .text	00000068 __sseek
00003cec g     F .text	000000a4 __sinit
00003618 g     F .text	00000130 __swbuf_r
00001f24 g     F .text	00000088 alt_up_char_buffer_string
000019dc g     F .text	0000000c read_CE_bit
00003dec g     F .text	00000068 __sfmoreglue
000055c0 g     F .text	00000004 __malloc_unlock
00001aac g     F .text	00000080 alt_up_ps2_read_data_byte_timeout
00001dc8 g     F .text	00000080 alt_up_rs232_read_fd
00001fac g     F .text	00000058 alt_up_char_buffer_draw
00003ddc g     F .text	00000010 _cleanup
000029d8 g     F .text	000000bc alt_up_pixel_buffer_dma_draw
00000000  w      *UND*	00000000 __errno
000016bc g     F .text	0000001c get_DDRAM_addr
00002acc g     F .text	00000020 alt_up_pixel_buffer_dma_open_dev
0000066c g     F .text	000000ac draw_cursor
00000000 g     F .entry	0000001c __reset
000004dc g     F .text	00000018 activer_interruption
00000020 g       *ABS*	00000000 __flash_exceptions_start
00005238 g     F .text	00000074 _fstat_r
0002da90 g     O .bss	00000004 errno
0002da80 g     O .bss	00000004 alt_argv
00035a20 g       *ABS*	00000000 _gp
00002aa4 g     F .text	00000028 alt_up_pixel_buffer_dma_change_back_buffer_address
0002d098 g     O .rwdata	00000180 alt_fd_list
00000348 g     F .text	00000028 swap_buffers
00002cd8 g     F .text	00000070 alt_find_dev
000008d4 g     F .text	000000a0 memcpy
00001750 g     F .text	00000020 alt_up_character_lcd_write_fd
00002004 g     F .text	00000028 alt_up_char_buffer_clear
00003dd0 g     F .text	0000000c _cleanup_r
00002dcc g     F .text	00000098 alt_io_redirect
00001d7c g     F .text	0000004c alt_up_rs232_read_data
00002a94 g     F .text	00000010 alt_up_pixel_buffer_dma_check_swap_buffers_status
00001358 g     F .text	00000168 altera_avalon_jtag_uart_read
000054a0 g     F .text	00000084 isatty
00002478 g     F .text	00000174 alt_up_pixel_buffer_dma_draw_hline
00003214 g     F .text	0000003c alt_icache_flush
0002da94 g     O .bss	00000004 __malloc_top_pad
00004e70 g     F .text	00000070 _sbrk_r
0000209c g     F .text	0000005c helper_plot_pixel
00005394 g     F .text	00000078 _read_r
0002da48 g     O .rwdata	00000004 alt_max_fd
00001d50 g     F .text	0000000c alt_up_rs232_check_parity
00005114 g     F .text	00000110 _fclose_r
000001a4 g     F .text	00000028 rgb
000019e8 g     F .text	00000008 read_num_bytes_available
00000370 g     F .text	00000040 init_graph
00003c50 g     F .text	00000034 fflush
0002da98 g     O .bss	00000004 __malloc_max_sbrked_mem
00000974 g     F .text	000000bc alt_irq_register
000019c8 g     F .text	0000000c read_RI_bit
00002900 g     F .text	000000b4 alt_up_pixel_buffer_dma_clear_screen
00005524 g     F .text	00000098 lseek
0002da5c g     O .rwdata	00000004 _global_impure_ptr
0002dbc8 g       *ABS*	00000000 __bss_end
000026bc g     F .text	00000244 alt_up_pixel_buffer_dma_draw_box
00003038 g     F .text	000000ac alt_tick
000019fc g     F .text	00000008 read_data_byte
00003db8 g     F .text	00000018 __fp_lock_all
00003004 g     F .text	00000034 alt_alarm_stop
000019d4 g     F .text	00000008 read_RE_bit
0002da78 g     O .bss	00000004 alt_irq_active
000000ec g     F .exceptions	0000007c alt_irq_handler
0002d070 g     O .rwdata	00000028 alt_dev_null
00005b60 g     O .rwdata	00000800 oiseau_img
00001790 g     F .text	0000001c alt_up_character_lcd_cursor_blink_on
00001bb0 g     F .text	00000040 alt_up_ps2_write_data_byte
00002c5c g     F .text	00000004 alt_dcache_flush_all
000025ec g     F .text	000000d0 alt_up_pixel_buffer_dma_draw_rectangle
0002da6c g       *ABS*	00000000 __ram_rwdata_end
0002da40 g     O .rwdata	00000008 alt_dev_list
0000570c g     F .text	000000f4 write
00003400 g     F .text	000000e8 _putc_r
000020f8 g     F .text	000001ec alt_up_pixel_buffer_dma_draw_line
00005b60 g       *ABS*	00000000 __ram_rodata_end
00005420 g     F .text	00000080 fstat
00001e70 g     F .text	00000070 alt_up_rs232_write_fd
00000000 g       *ABS*	00000000 __alt_mem_SDRAM
0002da20 g     O .rwdata	00000004 TIMER_STATUS
0002dbc8 g       *ABS*	00000000 end
00001bf0 g     F .text	00000070 alt_up_ps2_write_fd
00006360 g     O .rwdata	000001c2 smiley_img
0000204c g     F .text	00000050 alt_up_char_buffer_init
00001138 g     F .text	00000078 altera_avalon_jtag_uart_init
00800000 g       *ABS*	00000000 __alt_stack_pointer
0000163c g     F .text	00000044 alt_avalon_timer_sc_init
000014c0 g     F .text	0000017c altera_avalon_jtag_uart_write
00000504 g     F .text	000000ac draw_piou
00003cdc g     F .text	00000004 __sfp_lock_acquire
00001724 g     F .text	0000002c alt_up_character_lcd_write
00004070 g     F .text	00000314 _free_r
00000b44 g     F .text	000001dc alt_printf
000038a4 g     F .text	000001b0 __call_exitprocs
0002da64 g     O .rwdata	00000004 __malloc_sbrk_base
00000168 g     F .text	0000003c _start
0002da88 g     O .bss	00000004 _alt_tick_rate
0002da8c g     O .bss	00000004 _alt_nticks
000055c4 g     F .text	000000f8 read
00000d68 g     F .text	000002ac alt_sys_init
00001834 g     F .text	00000090 alt_up_character_lcd_shift_display
00001a24 g     F .text	00000030 alt_up_ps2_clear_fifo
00001e48 g     F .text	00000010 alt_up_rs232_get_available_space_in_write_FIFO
000017c8 g     F .text	0000006c alt_up_character_lcd_erase_pos
000010ac g     F .text	00000038 altera_avalon_jtag_uart_close
00005b60 g       *ABS*	00000000 __ram_rwdata_start
00005804 g       *ABS*	00000000 __ram_rodata_start
0002daa0 g     O .bss	00000028 __malloc_current_mallinfo
00000304 g     F .text	00000044 put_pixel
00001084 g     F .text	00000028 altera_avalon_jtag_uart_read_fd
000031a8 g     F .text	0000006c alt_get_fd
0002da2c g     O .rwdata	00000004 x_pos
000050a4 g     F .text	00000070 _close_r
00003288 g     F .text	00000074 memcmp
00001034 g     F .text	00000028 altera_avalon_jtag_uart_close_fd
0002dbc8 g       *ABS*	00000000 __alt_stack_base
00001014 g     F .text	00000020 altera_avalon_jtag_uart_ioctl_fd
00003764 g     F .text	0000013c __swsetup_r
000003b0 g     F .text	00000050 init
00000400 g     F .text	00000030 tick
00003e54 g     F .text	000000f0 __sfp
0002d618 g     O .rwdata	00000408 __malloc_av_
00003ce8 g     F .text	00000004 __sinit_lock_release
00004fcc g     F .text	00000060 __sread
00001ee0 g     F .text	0000001c alt_up_rs232_disable_read_interrupt
000030ec g     F .text	000000bc alt_find_file
00002c68 g     F .text	00000070 alt_dev_llist_insert
000055bc g     F .text	00000004 __malloc_lock
000056bc g     F .text	00000050 sbrk
00003a54 g     F .text	000001fc _fflush_r
0002da6c g       *ABS*	00000000 __bss_start
00004dd8 g     F .text	00000098 memset
000005b0 g     F .text	000000bc main
0002da84 g     O .bss	00000004 alt_envp
0002da9c g     O .bss	00000004 __malloc_max_total_mem
000029b4 g     F .text	00000024 alt_up_pixel_buffer_dma_swap_buffers
0000202c g     F .text	00000020 alt_up_char_buffer_open_dev
0000105c g     F .text	00000028 altera_avalon_jtag_uart_write_fd
00003748 g     F .text	0000001c __swbuf
000018c4 g     F .text	00000090 alt_up_character_lcd_shift_cursor
00004ee0 g     F .text	00000008 __sclose
00800000 g       *ABS*	00000000 __alt_heap_limit
00005224 g     F .text	00000014 fclose
00001a54 g     F .text	00000058 alt_up_ps2_read_data_byte
00004698 g     F .text	00000740 _malloc_r
0002da4c g     O .rwdata	00000004 alt_errno
0000444c g     F .text	000000b8 _fwalk
00001a04 g     F .text	00000020 alt_up_ps2_open_dev
000032fc g     F .text	00000104 putc
000019a8 g     F .text	00000020 alt_up_character_lcd_open_dev
00003f44 g     F .text	0000012c _malloc_trim_r
00001d38 g     F .text	00000018 alt_up_ps2_enable_read_interrupt
0002da24 g     O .rwdata	00000004 TIMER_CTRL
00001770 g     F .text	00000010 alt_up_character_lcd_init
000034e8 g     F .text	000000bc strcmp
00005804 g       *ABS*	00000000 __flash_rodata_start
00001d5c g     F .text	00000020 alt_up_rs232_open_dev
00000d48 g     F .text	00000020 alt_irq_init
00002fe0 g     F .text	00000024 alt_release_fd
000019f0 g     F .text	0000000c read_data_valid
000017ac g     F .text	0000001c alt_up_character_lcd_cursor_off
00001c60 g     F .text	00000034 alt_up_ps2_write_data_byte_with_ack
0000502c g     F .text	00000078 _write_r
0002da58 g     O .rwdata	00000004 _impure_ptr
0002da7c g     O .bss	00000004 alt_argc
00000020 g       .exceptions	00000000 alt_irq_entry
00003da0 g     F .text	00000018 __fp_unlock_all
0002da70 g     O .bss	00000004 mouse
0002da38 g     O .rwdata	00000008 alt_fs_list
0002da6c g     O .bss	00000004 pixel_buffer_dev
00001efc g     F .text	00000018 alt_up_rs232_enable_read_interrupt
00001e58 g     F .text	00000018 alt_up_rs232_write_data
0002da74 g     O .bss	00000004 middle_pos
00000020 g       *ABS*	00000000 __ram_exceptions_start
0002da6c g       *ABS*	00000000 _edata
0002dbc8 g       *ABS*	00000000 _end
0002da28 g     O .rwdata	00000004 PS2_DATA
00000168 g       *ABS*	00000000 __ram_exceptions_end
000012e4 g     F .text	00000074 altera_avalon_jtag_uart_ioctl
00004f50 g     F .text	0000007c __swrite
0002da60 g     O .rwdata	00000004 __malloc_trim_threshold
000030e4 g     F .text	00000008 altera_nios2_qsys_irq_init
00003250 g     F .text	00000038 exit
00006522 g     O .rwdata	00025800 nuages_img
00004384 g     F .text	000000c8 _fwalk_reent
00001c94 g     F .text	00000088 alt_up_ps2_init
00800000 g       *ABS*	00000000 __alt_data_end
00000020 g     F .exceptions	00000000 alt_exception
00003ce0 g     F .text	00000004 __sfp_lock_release
000001cc g     F .text	00000118 draw_image
000016d8 g     F .text	0000004c alt_up_character_lcd_string
00000718 g     F .text	000001bc init_mouse
0000540c g     F .text	00000014 _exit
00002aec g     F .text	00000094 alt_alarm_start
00004504 g     F .text	00000194 __smakebuf_r
00001b54 g     F .text	0000005c alt_up_ps2_wait_for_ack
000035a4 g     F .text	00000074 strlen
00002e64 g     F .text	0000017c open
00000d20 g     F .text	00000028 alt_putchar
00002d48 g     F .text	00000020 alt_icache_flush_all
00001954 g     F .text	00000054 alt_up_character_lcd_set_cursor_pos
0002da34 g     O .rwdata	00000004 alt_priority_mask
00001b2c g     F .text	00000028 alt_up_ps2_read_fd
000002e4 g     F .text	00000020 clear_screen
0002da30 g     O .rwdata	00000004 y_pos
0002da50 g     O .rwdata	00000008 alt_alarm_list
00001f14 g     F .text	00000010 alt_up_rs232_get_used_space_in_read_FIFO
00002b80 g     F .text	000000dc close
00000a30 g     F .text	000000c4 alt_load
00000000  w      *UND*	00000000 free
00003ce4 g     F .text	00000004 __sinit_lock_acquire



Disassembly of section .entry:

00000000 <__reset>:
   0:	00840014 	movui	r2,4096
   4:	1001483a 	initi	r2
   8:	10bff804 	addi	r2,r2,-32
   c:	00bffd16 	blt	zero,r2,4 <__reset+0x4>
  10:	00400034 	movhi	at,0
  14:	08405a14 	ori	at,at,360
  18:	0800683a 	jmp	at
  1c:	00000000 	call	0 <__reset>

Disassembly of section .exceptions:

00000020 <alt_exception>:
  20:	deffed04 	addi	sp,sp,-76
  24:	dfc00015 	stw	ra,0(sp)
  28:	d8400215 	stw	at,8(sp)
  2c:	d8800315 	stw	r2,12(sp)
  30:	d8c00415 	stw	r3,16(sp)
  34:	d9000515 	stw	r4,20(sp)
  38:	d9400615 	stw	r5,24(sp)
  3c:	d9800715 	stw	r6,28(sp)
  40:	d9c00815 	stw	r7,32(sp)
  44:	000b307a 	rdctl	r5,estatus
  48:	da000915 	stw	r8,36(sp)
  4c:	da400a15 	stw	r9,40(sp)
  50:	da800b15 	stw	r10,44(sp)
  54:	dac00c15 	stw	r11,48(sp)
  58:	db000d15 	stw	r12,52(sp)
  5c:	db400e15 	stw	r13,56(sp)
  60:	db800f15 	stw	r14,60(sp)
  64:	dbc01015 	stw	r15,64(sp)
  68:	d9401115 	stw	r5,68(sp)
  6c:	ebffff04 	addi	r15,ea,-4
  70:	dbc01215 	stw	r15,72(sp)
  74:	0009313a 	rdctl	r4,ipending
  78:	2880004c 	andi	r2,r5,1
  7c:	10000326 	beq	r2,zero,8c <alt_exception+0x6c>
  80:	20000226 	beq	r4,zero,8c <alt_exception+0x6c>
  84:	00000ec0 	call	ec <alt_irq_handler>
  88:	00000306 	br	98 <alt_exception+0x78>
  8c:	df401215 	stw	ea,72(sp)
  90:	e8bfff17 	ldw	r2,-4(ea)
  94:	003da03a 	break	0
  98:	d9401117 	ldw	r5,68(sp)
  9c:	df401217 	ldw	ea,72(sp)
  a0:	dfc00017 	ldw	ra,0(sp)
  a4:	2801707a 	wrctl	estatus,r5
  a8:	d8400217 	ldw	at,8(sp)
  ac:	d8800317 	ldw	r2,12(sp)
  b0:	d8c00417 	ldw	r3,16(sp)
  b4:	d9000517 	ldw	r4,20(sp)
  b8:	d9400617 	ldw	r5,24(sp)
  bc:	d9800717 	ldw	r6,28(sp)
  c0:	d9c00817 	ldw	r7,32(sp)
  c4:	da000917 	ldw	r8,36(sp)
  c8:	da400a17 	ldw	r9,40(sp)
  cc:	da800b17 	ldw	r10,44(sp)
  d0:	dac00c17 	ldw	r11,48(sp)
  d4:	db000d17 	ldw	r12,52(sp)
  d8:	db400e17 	ldw	r13,56(sp)
  dc:	db800f17 	ldw	r14,60(sp)
  e0:	dbc01017 	ldw	r15,64(sp)
  e4:	dec01304 	addi	sp,sp,76
  e8:	ef80083a 	eret

000000ec <alt_irq_handler>:
  ec:	defffe04 	addi	sp,sp,-8
  f0:	dfc00115 	stw	ra,4(sp)
  f4:	dc000015 	stw	r16,0(sp)
  f8:	000d313a 	rdctl	r6,ipending
  fc:	040000f4 	movhi	r16,3
 100:	8436b204 	addi	r16,r16,-9528
 104:	3080004c 	andi	r2,r6,1
 108:	1005003a 	cmpeq	r2,r2,zero
 10c:	10000a1e 	bne	r2,zero,138 <alt_irq_handler+0x4c>
 110:	000b883a 	mov	r5,zero
 114:	280490fa 	slli	r2,r5,3
 118:	1405883a 	add	r2,r2,r16
 11c:	10c00017 	ldw	r3,0(r2)
 120:	11000117 	ldw	r4,4(r2)
 124:	183ee83a 	callr	r3
 128:	0005313a 	rdctl	r2,ipending
 12c:	10000a26 	beq	r2,zero,158 <alt_irq_handler+0x6c>
 130:	100d883a 	mov	r6,r2
 134:	003ff306 	br	104 <alt_irq_handler+0x18>
 138:	00c00044 	movi	r3,1
 13c:	000b883a 	mov	r5,zero
 140:	1809883a 	mov	r4,r3
 144:	18c7883a 	add	r3,r3,r3
 148:	290b883a 	add	r5,r5,r4
 14c:	30c4703a 	and	r2,r6,r3
 150:	103ff01e 	bne	r2,zero,114 <alt_irq_handler+0x28>
 154:	003ffb06 	br	144 <alt_irq_handler+0x58>
 158:	dfc00117 	ldw	ra,4(sp)
 15c:	dc000017 	ldw	r16,0(sp)
 160:	dec00204 	addi	sp,sp,8
 164:	f800283a 	ret

Disassembly of section .text:

00000168 <_start>:
     168:	06c02034 	movhi	sp,128
     16c:	dec00014 	ori	sp,sp,0
     170:	068000f4 	movhi	gp,3
     174:	d6968814 	ori	gp,gp,23072
     178:	008000b4 	movhi	r2,2
     17c:	10b69b14 	ori	r2,r2,55916
     180:	00c000b4 	movhi	r3,2
     184:	18f6f214 	ori	r3,r3,56264
     188:	10c00326 	beq	r2,r3,198 <_start+0x30>
     18c:	10000015 	stw	zero,0(r2)
     190:	10800104 	addi	r2,r2,4
     194:	10fffd36 	bltu	r2,r3,18c <_start+0x24>
     198:	0000a300 	call	a30 <alt_load>
     19c:	0000af40 	call	af4 <alt_main>

000001a0 <alt_after_alt_main>:
     1a0:	003fff06 	br	1a0 <alt_after_alt_main>

000001a4 <rgb>:
void put_pixel(int x, int y, unsigned short val) {
	if (x < 0 || x > 319 || y < 0 || y > 239) return;
	alt_up_pixel_buffer_dma_draw(pixel_buffer_dev, val, x, y);
}

unsigned short rgb(unsigned char r, unsigned char g, unsigned char b) {
     1a4:	2004923a 	slli	r2,r4,8
     1a8:	10be000c 	andi	r2,r2,63488
     1ac:	280a90fa 	slli	r5,r5,3
     1b0:	2941f80c 	andi	r5,r5,2016
     1b4:	1145883a 	add	r2,r2,r5
     1b8:	31803fcc 	andi	r6,r6,255
     1bc:	300c90fa 	slli	r6,r6,3
     1c0:	1185883a 	add	r2,r2,r6
     1c4:	10bfffcc 	andi	r2,r2,65535
	return (r>>3<<11) + (g>>2<<5) + (b<<3);
}
     1c8:	f800283a 	ret

000001cc <draw_image>:

void clear_screen() {
	alt_up_pixel_buffer_dma_clear_screen(pixel_buffer_dev, 1);
}

void draw_image(unsigned short *src, int w, int h, int x, int y) {
     1cc:	defff904 	addi	sp,sp,-28
     1d0:	dfc00615 	stw	ra,24(sp)
     1d4:	dd400515 	stw	r21,20(sp)
     1d8:	dd000415 	stw	r20,16(sp)
     1dc:	dcc00315 	stw	r19,12(sp)
     1e0:	dc800215 	stw	r18,8(sp)
     1e4:	dc400115 	stw	r17,4(sp)
     1e8:	dc000015 	stw	r16,0(sp)
     1ec:	2013883a 	mov	r9,r4
     1f0:	2805883a 	mov	r2,r5
     1f4:	d8c00717 	ldw	r3,28(sp)
	int left_bound, right_bound;
	int top_bound, bottom_bound;
	
	int last_x = x+w-1;
	int last_y = y+h-1;
     1f8:	198d883a 	add	r6,r3,r6
     1fc:	017fffc4 	movi	r5,-1
     200:	314d883a 	add	r6,r6,r5
	
	int i,j;

	// Quick check to see if the image is off screen.
	if (last_y < 0 || last_x < 0 || x > 319 || y > 239) return;
     204:	30002e16 	blt	r6,zero,2c0 <draw_image+0xf4>

void draw_image(unsigned short *src, int w, int h, int x, int y) {
	int left_bound, right_bound;
	int top_bound, bottom_bound;
	
	int last_x = x+w-1;
     208:	3885883a 	add	r2,r7,r2
     20c:	114b883a 	add	r5,r2,r5
	int last_y = y+h-1;
	
	int i,j;

	// Quick check to see if the image is off screen.
	if (last_y < 0 || last_x < 0 || x > 319 || y > 239) return;
     210:	28002b16 	blt	r5,zero,2c0 <draw_image+0xf4>
     214:	00804fc4 	movi	r2,319
     218:	11c02916 	blt	r2,r7,2c0 <draw_image+0xf4>
     21c:	00803bc4 	movi	r2,239
     220:	10c02716 	blt	r2,r3,2c0 <draw_image+0xf4>
     224:	3811883a 	mov	r8,r7
     228:	3800010e 	bge	r7,zero,230 <draw_image+0x64>
     22c:	0011883a 	mov	r8,zero
     230:	00804fc4 	movi	r2,319
     234:	1140010e 	bge	r2,r5,23c <draw_image+0x70>
     238:	100b883a 	mov	r5,r2
     23c:	1809883a 	mov	r4,r3
     240:	1800010e 	bge	r3,zero,248 <draw_image+0x7c>
     244:	0009883a 	mov	r4,zero
	// top_bound = max(0, y);
	if (y < 0) top_bound = 0;
	else top_bound = y;
	
	// bottom_bound = min(last_y, 239);
	if (239 < last_y) bottom_bound = 319;
     248:	00803bc4 	movi	r2,239
     24c:	11800216 	blt	r2,r6,258 <draw_image+0x8c>
     250:	3027883a 	mov	r19,r6
     254:	00000106 	br	25c <draw_image+0x90>
     258:	04c04fc4 	movi	r19,319
	else bottom_bound = last_y;
	
	// Copying each line.
	for (i=top_bound; i<=bottom_bound; i++) {
     25c:	99001816 	blt	r19,r4,2c0 <draw_image+0xf4>

void clear_screen() {
	alt_up_pixel_buffer_dma_clear_screen(pixel_buffer_dev, 1);
}

void draw_image(unsigned short *src, int w, int h, int x, int y) {
     260:	4029883a 	mov	r20,r8
     264:	20c5c83a 	sub	r2,r4,r3
     268:	10805024 	muli	r2,r2,320
     26c:	4085883a 	add	r2,r8,r2
     270:	1085883a 	add	r2,r2,r2
     274:	4885883a 	add	r2,r9,r2
     278:	39c7883a 	add	r3,r7,r7
     27c:	10e3c83a 	sub	r17,r2,r3
     280:	2021883a 	mov	r16,r4
     284:	2a05c83a 	sub	r2,r5,r8
     288:	05400044 	movi	r21,1
     28c:	1565883a 	add	r18,r2,r21
	if (239 < last_y) bottom_bound = 319;
	else bottom_bound = last_y;
	
	// Copying each line.
	for (i=top_bound; i<=bottom_bound; i++) {
		memcpy(
     290:	8008927a 	slli	r4,r16,9
     294:	a109883a 	add	r4,r20,r4
     298:	2109883a 	add	r4,r4,r4
     29c:	d0a01317 	ldw	r2,-32692(gp)
     2a0:	10800c17 	ldw	r2,48(r2)
     2a4:	2089883a 	add	r4,r4,r2
     2a8:	880b883a 	mov	r5,r17
     2ac:	948d883a 	add	r6,r18,r18
     2b0:	00008d40 	call	8d4 <memcpy>
	// bottom_bound = min(last_y, 239);
	if (239 < last_y) bottom_bound = 319;
	else bottom_bound = last_y;
	
	// Copying each line.
	for (i=top_bound; i<=bottom_bound; i++) {
     2b4:	8561883a 	add	r16,r16,r21
     2b8:	8c40a004 	addi	r17,r17,640
     2bc:	9c3ff40e 	bge	r19,r16,290 <draw_image+0xc4>
			src + (i-y)*320 + left_bound-x,
			(right_bound - left_bound + 1) << 1
		);

	}
}
     2c0:	dfc00617 	ldw	ra,24(sp)
     2c4:	dd400517 	ldw	r21,20(sp)
     2c8:	dd000417 	ldw	r20,16(sp)
     2cc:	dcc00317 	ldw	r19,12(sp)
     2d0:	dc800217 	ldw	r18,8(sp)
     2d4:	dc400117 	ldw	r17,4(sp)
     2d8:	dc000017 	ldw	r16,0(sp)
     2dc:	dec00704 	addi	sp,sp,28
     2e0:	f800283a 	ret

000002e4 <clear_screen>:

unsigned short rgb(unsigned char r, unsigned char g, unsigned char b) {
	return (r>>3<<11) + (g>>2<<5) + (b<<3);
}

void clear_screen() {
     2e4:	deffff04 	addi	sp,sp,-4
     2e8:	dfc00015 	stw	ra,0(sp)
	alt_up_pixel_buffer_dma_clear_screen(pixel_buffer_dev, 1);
     2ec:	d1201317 	ldw	r4,-32692(gp)
     2f0:	01400044 	movi	r5,1
     2f4:	00029000 	call	2900 <alt_up_pixel_buffer_dma_clear_screen>
}
     2f8:	dfc00017 	ldw	ra,0(sp)
     2fc:	dec00104 	addi	sp,sp,4
     300:	f800283a 	ret

00000304 <put_pixel>:
void swap_buffers() {
	alt_up_pixel_buffer_dma_swap_buffers(pixel_buffer_dev);
	while (alt_up_pixel_buffer_dma_check_swap_buffers_status(pixel_buffer_dev));
}

void put_pixel(int x, int y, unsigned short val) {
     304:	deffff04 	addi	sp,sp,-4
     308:	dfc00015 	stw	ra,0(sp)
     30c:	200f883a 	mov	r7,r4
     310:	2807883a 	mov	r3,r5
	if (x < 0 || x > 319 || y < 0 || y > 239) return;
     314:	00804fc4 	movi	r2,319
     318:	11000836 	bltu	r2,r4,33c <put_pixel+0x38>
     31c:	28000716 	blt	r5,zero,33c <put_pixel+0x38>
     320:	00803bc4 	movi	r2,239
     324:	11400516 	blt	r2,r5,33c <put_pixel+0x38>
	alt_up_pixel_buffer_dma_draw(pixel_buffer_dev, val, x, y);
     328:	d1201317 	ldw	r4,-32692(gp)
     32c:	317fffcc 	andi	r5,r6,65535
     330:	380d883a 	mov	r6,r7
     334:	180f883a 	mov	r7,r3
     338:	00029d80 	call	29d8 <alt_up_pixel_buffer_dma_draw>
}
     33c:	dfc00017 	ldw	ra,0(sp)
     340:	dec00104 	addi	sp,sp,4
     344:	f800283a 	ret

00000348 <swap_buffers>:
	if (!pixel_buffer_dev) return -1;
	alt_up_pixel_buffer_dma_change_back_buffer_address(pixel_buffer_dev, 0x08040000);
	return 0;
}

void swap_buffers() {
     348:	deffff04 	addi	sp,sp,-4
     34c:	dfc00015 	stw	ra,0(sp)
	alt_up_pixel_buffer_dma_swap_buffers(pixel_buffer_dev);
     350:	d1201317 	ldw	r4,-32692(gp)
     354:	00029b40 	call	29b4 <alt_up_pixel_buffer_dma_swap_buffers>
	while (alt_up_pixel_buffer_dma_check_swap_buffers_status(pixel_buffer_dev));
     358:	d1201317 	ldw	r4,-32692(gp)
     35c:	0002a940 	call	2a94 <alt_up_pixel_buffer_dma_check_swap_buffers_status>
     360:	103ffd1e 	bne	r2,zero,358 <swap_buffers+0x10>
}
     364:	dfc00017 	ldw	ra,0(sp)
     368:	dec00104 	addi	sp,sp,4
     36c:	f800283a 	ret

00000370 <init_graph>:

#include "graphlib.h"

alt_up_pixel_buffer_dma_dev *pixel_buffer_dev;

int init_graph() {
     370:	deffff04 	addi	sp,sp,-4
     374:	dfc00015 	stw	ra,0(sp)
	pixel_buffer_dev = alt_up_pixel_buffer_dma_open_dev ("/dev/VGA_Pixel_Buffer");
     378:	01000034 	movhi	r4,0
     37c:	21160104 	addi	r4,r4,22532
     380:	0002acc0 	call	2acc <alt_up_pixel_buffer_dma_open_dev>
     384:	d0a01315 	stw	r2,-32692(gp)
	if (!pixel_buffer_dev) return -1;
     388:	1000021e 	bne	r2,zero,394 <init_graph+0x24>
     38c:	00bfffc4 	movi	r2,-1
     390:	00000406 	br	3a4 <init_graph+0x34>
	alt_up_pixel_buffer_dma_change_back_buffer_address(pixel_buffer_dev, 0x08040000);
     394:	1009883a 	mov	r4,r2
     398:	01420134 	movhi	r5,2052
     39c:	0002aa40 	call	2aa4 <alt_up_pixel_buffer_dma_change_back_buffer_address>
     3a0:	0005883a 	mov	r2,zero
	return 0;
}
     3a4:	dfc00017 	ldw	ra,0(sp)
     3a8:	dec00104 	addi	sp,sp,4
     3ac:	f800283a 	ret

000003b0 <init>:
#include "altera_up_ps2_mouse.h"
#include "nios2.h"

alt_up_ps2_dev *mouse;

void init() {
     3b0:	deffff04 	addi	sp,sp,-4
     3b4:	dfc00015 	stw	ra,0(sp)
	NIOS2_WRITE_STATUS(0);
     3b8:	0001703a 	wrctl	status,zero
	NIOS2_WRITE_IENABLE(0);
     3bc:	000170fa 	wrctl	ienable,zero
	
	mouse = init_mouse();
     3c0:	00007180 	call	718 <init_mouse>
     3c4:	d0a01415 	stw	r2,-32688(gp)
	if (!mouse) {
     3c8:	1000031e 	bne	r2,zero,3d8 <init+0x28>
		alt_printf("Failed to initialize mouse.\n");
     3cc:	01000034 	movhi	r4,0
     3d0:	21160704 	addi	r4,r4,22556
     3d4:	0000b440 	call	b44 <alt_printf>
	}
	alt_up_ps2_enable_read_interrupt(mouse);
     3d8:	d1201417 	ldw	r4,-32688(gp)
     3dc:	0001d380 	call	1d38 <alt_up_ps2_enable_read_interrupt>
	
	if (init_graph() < 0) {
     3e0:	00003700 	call	370 <init_graph>
     3e4:	1000030e 	bge	r2,zero,3f4 <init+0x44>
		alt_printf("Failed to initialize VGA device.\n");
     3e8:	01000034 	movhi	r4,0
     3ec:	21160f04 	addi	r4,r4,22588
     3f0:	0000b440 	call	b44 <alt_printf>
		return -1;
	}
     3f4:	dfc00017 	ldw	ra,0(sp)
     3f8:	dec00104 	addi	sp,sp,4
     3fc:	f800283a 	ret

00000400 <tick>:

int x_pos = 100, y_pos = 100;
int middle_pos = 0;

void tick() {
	middle_pos = MOD(middle_pos - 1, 320);
     400:	d0e01517 	ldw	r3,-32684(gp)
     404:	18ffffc4 	addi	r3,r3,-1
     408:	01005004 	movi	r4,320
     40c:	1905283a 	div	r2,r3,r4
     410:	1105383a 	mul	r2,r2,r4
     414:	1887c83a 	sub	r3,r3,r2
     418:	1907883a 	add	r3,r3,r4
     41c:	1905283a 	div	r2,r3,r4
     420:	1105383a 	mul	r2,r2,r4
     424:	1887c83a 	sub	r3,r3,r2
     428:	d0e01515 	stw	r3,-32684(gp)
}
     42c:	f800283a 	ret

00000430 <TIMER_ISR>:

static void TIMER_ISR(void *context, alt_u32 id) {
     430:	deffff04 	addi	sp,sp,-4
     434:	dfc00015 	stw	ra,0(sp)
	
	// Call the function to update the animation
	tick();
     438:	00004000 	call	400 <tick>
	
	// Interruption received
	*TIMER_STATUS = 0;
     43c:	d0a00017 	ldw	r2,-32768(gp)
     440:	10000015 	stw	zero,0(r2)
}
     444:	dfc00017 	ldw	ra,0(sp)
     448:	dec00104 	addi	sp,sp,4
     44c:	f800283a 	ret

00000450 <MOUSE_ISR>:

// Question 4.2
static void MOUSE_ISR(void *context, alt_u32 id)  {
     450:	defffd04 	addi	sp,sp,-12
	int mouse_data[3];
	int tmp;

	// If we don't have the whole data
	while (current_mouse_data < 3) {
		tmp = *PS2_DATA;
     454:	d1600217 	ldw	r5,-32760(gp)
     458:	28800017 	ldw	r2,0(r5)
		mouse_data[current_mouse_data] = tmp & 0x0001;
     45c:	01000044 	movi	r4,1
     460:	1104703a 	and	r2,r2,r4
     464:	d8800015 	stw	r2,0(sp)
	int mouse_data[3];
	int tmp;

	// If we don't have the whole data
	while (current_mouse_data < 3) {
		tmp = *PS2_DATA;
     468:	28c00017 	ldw	r3,0(r5)
		mouse_data[current_mouse_data] = tmp & 0x0001;
     46c:	1906703a 	and	r3,r3,r4
     470:	d8c00115 	stw	r3,4(sp)
	int mouse_data[3];
	int tmp;

	// If we don't have the whole data
	while (current_mouse_data < 3) {
		tmp = *PS2_DATA;
     474:	29400017 	ldw	r5,0(r5)
		mouse_data[current_mouse_data] = tmp & 0x0001;
     478:	290a703a 	and	r5,r5,r4
		++current_mouse_data;
	}
	
	// If we have the whole information
	x_pos = MOD(x_pos + mouse_data[1], 320);
     47c:	d0a00317 	ldw	r2,-32756(gp)
     480:	1887883a 	add	r3,r3,r2
     484:	01005004 	movi	r4,320
     488:	1905283a 	div	r2,r3,r4
     48c:	1105383a 	mul	r2,r2,r4
     490:	1887c83a 	sub	r3,r3,r2
     494:	1907883a 	add	r3,r3,r4
     498:	1905283a 	div	r2,r3,r4
     49c:	1105383a 	mul	r2,r2,r4
     4a0:	1887c83a 	sub	r3,r3,r2
     4a4:	d0e00315 	stw	r3,-32756(gp)
	y_pos = MOD(y_pos - mouse_data[2], 240);
     4a8:	d0e00417 	ldw	r3,-32752(gp)
     4ac:	1947c83a 	sub	r3,r3,r5
     4b0:	01003c04 	movi	r4,240
     4b4:	1905283a 	div	r2,r3,r4
     4b8:	1105383a 	mul	r2,r2,r4
     4bc:	1887c83a 	sub	r3,r3,r2
     4c0:	1907883a 	add	r3,r3,r4
     4c4:	1905283a 	div	r2,r3,r4
     4c8:	1105383a 	mul	r2,r2,r4
     4cc:	1887c83a 	sub	r3,r3,r2
     4d0:	d0e00415 	stw	r3,-32752(gp)
}
     4d4:	dec00304 	addi	sp,sp,12
     4d8:	f800283a 	ret

000004dc <activer_interruption>:
// Question 1.2
void activer_interruption(int num) {

	// Get the current value
	unsigned int ienable;
	NIOS2_READ_IENABLE(ienable);
     4dc:	000730fa 	rdctl	r3,ienable
	
	// Put the mask at the right position
	mask = mask << num;
	
	// Write the new value
	NIOS2_WRITE_IENABLE(mask | ienable);
     4e0:	00800044 	movi	r2,1
     4e4:	1104983a 	sll	r2,r2,r4
     4e8:	1886b03a 	or	r3,r3,r2
     4ec:	180170fa 	wrctl	ienable,r3
}
     4f0:	f800283a 	ret

000004f4 <activer_interruptions>:
// Question 1.1
void activer_interruptions() {

	// Get the current status
	unsigned int status;
	NIOS2_READ_STATUS(status);
     4f4:	0005303a 	rdctl	r2,status
	
	// The mask to put the first bit to 1
	unsigned int bit_a_un = 1;
	
	// Write new value
	NIOS2_WRITE_STATUS(bit_a_un | status);
     4f8:	10800054 	ori	r2,r2,1
     4fc:	1001703a 	wrctl	status,r2
}
     500:	f800283a 	ret

00000504 <draw_piou>:
		for (j=0; j<15; j++)
			if (smiley_img[i][j] != 65535)
				put_pixel(j+x-7, i+y-7, smiley_img[i][j]);
}

void draw_piou(int x, int y) {
     504:	defff904 	addi	sp,sp,-28
     508:	dfc00615 	stw	ra,24(sp)
     50c:	dd400515 	stw	r21,20(sp)
     510:	dd000415 	stw	r20,16(sp)
     514:	dcc00315 	stw	r19,12(sp)
     518:	dc800215 	stw	r18,8(sp)
     51c:	dc400115 	stw	r17,4(sp)
     520:	dc000015 	stw	r16,0(sp)
     524:	202b883a 	mov	r21,r4
     528:	2cfffc04 	addi	r19,r5,-16
     52c:	0029883a 	mov	r20,zero
     530:	00000f06 	br	570 <draw_piou+0x6c>
	int i, j;
	for (i=0; i<31; i++)
		for (j=0; j<31; j++)
			if (oiseau_img[i][j] != 65535)
     534:	8180000b 	ldhu	r6,0(r16)
     538:	00bfffd4 	movui	r2,65535
     53c:	30800326 	beq	r6,r2,54c <draw_piou+0x48>
				put_pixel(j+x-16, i+y-16, oiseau_img[i][j]);	
     540:	9009883a 	mov	r4,r18
     544:	980b883a 	mov	r5,r19
     548:	00003040 	call	304 <put_pixel>
}

void draw_piou(int x, int y) {
	int i, j;
	for (i=0; i<31; i++)
		for (j=0; j<31; j++)
     54c:	00c00044 	movi	r3,1
     550:	88e3883a 	add	r17,r17,r3
     554:	84000084 	addi	r16,r16,2
     558:	90e5883a 	add	r18,r18,r3
     55c:	008007c4 	movi	r2,31
     560:	88bff41e 	bne	r17,r2,534 <draw_piou+0x30>
				put_pixel(j+x-7, i+y-7, smiley_img[i][j]);
}

void draw_piou(int x, int y) {
	int i, j;
	for (i=0; i<31; i++)
     564:	a0e9883a 	add	r20,r20,r3
     568:	98e7883a 	add	r19,r19,r3
     56c:	a4400726 	beq	r20,r17,58c <draw_piou+0x88>
		for (j=0; j<31; j++)
			if (oiseau_img[i][j] != 65535)
				put_pixel(j+x-16, i+y-16, oiseau_img[i][j]);	
}
     570:	a00691ba 	slli	r3,r20,6
     574:	00800034 	movhi	r2,0
     578:	1096d804 	addi	r2,r2,23392
     57c:	18a1883a 	add	r16,r3,r2
     580:	acbffc04 	addi	r18,r21,-16
     584:	0023883a 	mov	r17,zero
     588:	003fea06 	br	534 <draw_piou+0x30>
     58c:	dfc00617 	ldw	ra,24(sp)
     590:	dd400517 	ldw	r21,20(sp)
     594:	dd000417 	ldw	r20,16(sp)
     598:	dcc00317 	ldw	r19,12(sp)
     59c:	dc800217 	ldw	r18,8(sp)
     5a0:	dc400117 	ldw	r17,4(sp)
     5a4:	dc000017 	ldw	r16,0(sp)
     5a8:	dec00704 	addi	sp,sp,28
     5ac:	f800283a 	ret

000005b0 <main>:
	// If we have the whole information
	x_pos = MOD(x_pos + mouse_data[1], 320);
	y_pos = MOD(y_pos - mouse_data[2], 240);
}

int main() {
     5b0:	defffb04 	addi	sp,sp,-20
     5b4:	dfc00415 	stw	ra,16(sp)
     5b8:	dc800315 	stw	r18,12(sp)
     5bc:	dc400215 	stw	r17,8(sp)
     5c0:	dc000115 	stw	r16,4(sp)
	init();
     5c4:	00003b00 	call	3b0 <init>
	
	// Question 1.3
	activer_interruptions();
     5c8:	00004f40 	call	4f4 <activer_interruptions>
	
	// Question 2.2
	*TIMER_CTRL = 7;
     5cc:	040001c4 	movi	r16,7
     5d0:	d0a00117 	ldw	r2,-32764(gp)
     5d4:	14000015 	stw	r16,0(r2)
	
	// Question 2.3
	activer_interruption(INTERVAL_TIMER_IRQ);
     5d8:	0009883a 	mov	r4,zero
     5dc:	00004dc0 	call	4dc <activer_interruption>
	
	// Question 4.1
	activer_interruption(PS2_PORT_IRQ);
     5e0:	8009883a 	mov	r4,r16
     5e4:	00004dc0 	call	4dc <activer_interruption>
	
	// Enregistrement des routines d'interruption.
	alt_irq_register ( INTERVAL_TIMER_IRQ, 0, TIMER_ISR );
     5e8:	0009883a 	mov	r4,zero
     5ec:	000b883a 	mov	r5,zero
     5f0:	01800034 	movhi	r6,0
     5f4:	31810c04 	addi	r6,r6,1072
     5f8:	00009740 	call	974 <alt_irq_register>
	alt_irq_register( PS2_PORT_IRQ, 0, MOUSE_ISR );
     5fc:	8009883a 	mov	r4,r16
     600:	000b883a 	mov	r5,zero
     604:	01800034 	movhi	r6,0
     608:	31811404 	addi	r6,r6,1104
     60c:	00009740 	call	974 <alt_irq_register>
     610:	04800034 	movhi	r18,0
     614:	94994884 	addi	r18,r18,25890
     618:	04005004 	movi	r16,320
     61c:	04403c04 	movi	r17,240
	
	while(1) {
		clear_screen();
     620:	00002e40 	call	2e4 <clear_screen>
		draw_image((unsigned short *)nuages_img, 320, 240, middle_pos-320, 0);
     624:	d8000015 	stw	zero,0(sp)
     628:	9009883a 	mov	r4,r18
     62c:	800b883a 	mov	r5,r16
     630:	880d883a 	mov	r6,r17
     634:	d1e01517 	ldw	r7,-32684(gp)
     638:	3c0fc83a 	sub	r7,r7,r16
     63c:	00001cc0 	call	1cc <draw_image>
		draw_image((unsigned short *)nuages_img, 320, 240, middle_pos, 0);
     640:	d1e01517 	ldw	r7,-32684(gp)
     644:	d8000015 	stw	zero,0(sp)
     648:	9009883a 	mov	r4,r18
     64c:	800b883a 	mov	r5,r16
     650:	880d883a 	mov	r6,r17
     654:	00001cc0 	call	1cc <draw_image>
		draw_piou(x_pos, y_pos);
     658:	d1200317 	ldw	r4,-32756(gp)
     65c:	d1600417 	ldw	r5,-32752(gp)
     660:	00005040 	call	504 <draw_piou>
		swap_buffers();
     664:	00003480 	call	348 <swap_buffers>
     668:	003fed06 	br	620 <main+0x70>

0000066c <draw_cursor>:
#define CURSOR_H

#include "oiseau.h"
unsigned short smiley_img[15][15] = {{65535, 65535, 65535, 65535, 65535, 0, 0, 0, 0, 0, 65535, 65535, 65535, 65535, 65535}, {65535, 65535, 65535, 0, 16868, 65256, 65290, 65292, 65194, 65063, 12642, 0, 65535, 65535, 65535}, {65535, 65535, 0, 59015, 65388, 65391, 65391, 65391, 65391, 65295, 65196, 56582, 0, 65535, 65535}, {65535, 0, 58980, 65388, 65420, 25356, 25356, 65388, 25356, 25356, 65196, 65132, 54501, 0, 65535}, {65535, 12642, 65416, 65416, 65416, 16936, 16936, 65416, 16936, 16936, 65256, 65096, 62920, 12642, 65535}, {0, 65283, 65381, 65445, 65445, 10565, 10565, 65445, 10565, 10565, 65253, 65061, 64901, 58659, 0}, {0, 65281, 65378, 65442, 65506, 65506, 65506, 65442, 65378, 65314, 65218, 65026, 64834, 58625, 0}, {0, 65280, 65344, 65444, 65440, 65472, 65440, 65408, 65344, 65280, 65184, 65028, 62720, 58560, 0}, {0, 65248, 65312, 0, 65440, 65408, 65408, 65344, 65312, 65248, 65185, 0, 62688, 58560, 0}, {0, 65216, 65280, 65312, 0, 65408, 65408, 65344, 65312, 65248, 0, 64864, 60640, 58560, 0}, {65535, 8384, 65216, 65248, 65280, 0, 0, 0, 0, 0, 64896, 62720, 58560, 8384, 65535}, {65535, 0, 58688, 65120, 65184, 65216, 65184, 65120, 65024, 64896, 62720, 58560, 50208, 0, 65535}, {65535, 65535, 0, 58560, 64960, 64960, 64960, 64896, 64864, 62720, 58560, 50208, 0, 65535, 65535}, {65535, 65535, 65535, 0, 8384, 64800, 62720, 62720, 60640, 58560, 8384, 0, 65535, 65535, 65535}, {65535, 65535, 65535, 65535, 65535, 0, 0, 0, 0, 0, 65535, 65535, 65535, 65535, 65535}};

void draw_cursor(int x, int y) {
     66c:	defff904 	addi	sp,sp,-28
     670:	dfc00615 	stw	ra,24(sp)
     674:	dd400515 	stw	r21,20(sp)
     678:	dd000415 	stw	r20,16(sp)
     67c:	dcc00315 	stw	r19,12(sp)
     680:	dc800215 	stw	r18,8(sp)
     684:	dc400115 	stw	r17,4(sp)
     688:	dc000015 	stw	r16,0(sp)
     68c:	202b883a 	mov	r21,r4
     690:	2cfffe44 	addi	r19,r5,-7
     694:	0029883a 	mov	r20,zero
     698:	00000f06 	br	6d8 <draw_cursor+0x6c>
	int i, j;
	for (i=0; i<15; i++)
		for (j=0; j<15; j++)
			if (smiley_img[i][j] != 65535)
     69c:	8180000b 	ldhu	r6,0(r16)
     6a0:	00bfffd4 	movui	r2,65535
     6a4:	30800326 	beq	r6,r2,6b4 <draw_cursor+0x48>
				put_pixel(j+x-7, i+y-7, smiley_img[i][j]);
     6a8:	9009883a 	mov	r4,r18
     6ac:	980b883a 	mov	r5,r19
     6b0:	00003040 	call	304 <put_pixel>
unsigned short smiley_img[15][15] = {{65535, 65535, 65535, 65535, 65535, 0, 0, 0, 0, 0, 65535, 65535, 65535, 65535, 65535}, {65535, 65535, 65535, 0, 16868, 65256, 65290, 65292, 65194, 65063, 12642, 0, 65535, 65535, 65535}, {65535, 65535, 0, 59015, 65388, 65391, 65391, 65391, 65391, 65295, 65196, 56582, 0, 65535, 65535}, {65535, 0, 58980, 65388, 65420, 25356, 25356, 65388, 25356, 25356, 65196, 65132, 54501, 0, 65535}, {65535, 12642, 65416, 65416, 65416, 16936, 16936, 65416, 16936, 16936, 65256, 65096, 62920, 12642, 65535}, {0, 65283, 65381, 65445, 65445, 10565, 10565, 65445, 10565, 10565, 65253, 65061, 64901, 58659, 0}, {0, 65281, 65378, 65442, 65506, 65506, 65506, 65442, 65378, 65314, 65218, 65026, 64834, 58625, 0}, {0, 65280, 65344, 65444, 65440, 65472, 65440, 65408, 65344, 65280, 65184, 65028, 62720, 58560, 0}, {0, 65248, 65312, 0, 65440, 65408, 65408, 65344, 65312, 65248, 65185, 0, 62688, 58560, 0}, {0, 65216, 65280, 65312, 0, 65408, 65408, 65344, 65312, 65248, 0, 64864, 60640, 58560, 0}, {65535, 8384, 65216, 65248, 65280, 0, 0, 0, 0, 0, 64896, 62720, 58560, 8384, 65535}, {65535, 0, 58688, 65120, 65184, 65216, 65184, 65120, 65024, 64896, 62720, 58560, 50208, 0, 65535}, {65535, 65535, 0, 58560, 64960, 64960, 64960, 64896, 64864, 62720, 58560, 50208, 0, 65535, 65535}, {65535, 65535, 65535, 0, 8384, 64800, 62720, 62720, 60640, 58560, 8384, 0, 65535, 65535, 65535}, {65535, 65535, 65535, 65535, 65535, 0, 0, 0, 0, 0, 65535, 65535, 65535, 65535, 65535}};

void draw_cursor(int x, int y) {
	int i, j;
	for (i=0; i<15; i++)
		for (j=0; j<15; j++)
     6b4:	00c00044 	movi	r3,1
     6b8:	88e3883a 	add	r17,r17,r3
     6bc:	84000084 	addi	r16,r16,2
     6c0:	90e5883a 	add	r18,r18,r3
     6c4:	008003c4 	movi	r2,15
     6c8:	88bff41e 	bne	r17,r2,69c <draw_cursor+0x30>
#include "oiseau.h"
unsigned short smiley_img[15][15] = {{65535, 65535, 65535, 65535, 65535, 0, 0, 0, 0, 0, 65535, 65535, 65535, 65535, 65535}, {65535, 65535, 65535, 0, 16868, 65256, 65290, 65292, 65194, 65063, 12642, 0, 65535, 65535, 65535}, {65535, 65535, 0, 59015, 65388, 65391, 65391, 65391, 65391, 65295, 65196, 56582, 0, 65535, 65535}, {65535, 0, 58980, 65388, 65420, 25356, 25356, 65388, 25356, 25356, 65196, 65132, 54501, 0, 65535}, {65535, 12642, 65416, 65416, 65416, 16936, 16936, 65416, 16936, 16936, 65256, 65096, 62920, 12642, 65535}, {0, 65283, 65381, 65445, 65445, 10565, 10565, 65445, 10565, 10565, 65253, 65061, 64901, 58659, 0}, {0, 65281, 65378, 65442, 65506, 65506, 65506, 65442, 65378, 65314, 65218, 65026, 64834, 58625, 0}, {0, 65280, 65344, 65444, 65440, 65472, 65440, 65408, 65344, 65280, 65184, 65028, 62720, 58560, 0}, {0, 65248, 65312, 0, 65440, 65408, 65408, 65344, 65312, 65248, 65185, 0, 62688, 58560, 0}, {0, 65216, 65280, 65312, 0, 65408, 65408, 65344, 65312, 65248, 0, 64864, 60640, 58560, 0}, {65535, 8384, 65216, 65248, 65280, 0, 0, 0, 0, 0, 64896, 62720, 58560, 8384, 65535}, {65535, 0, 58688, 65120, 65184, 65216, 65184, 65120, 65024, 64896, 62720, 58560, 50208, 0, 65535}, {65535, 65535, 0, 58560, 64960, 64960, 64960, 64896, 64864, 62720, 58560, 50208, 0, 65535, 65535}, {65535, 65535, 65535, 0, 8384, 64800, 62720, 62720, 60640, 58560, 8384, 0, 65535, 65535, 65535}, {65535, 65535, 65535, 65535, 65535, 0, 0, 0, 0, 0, 65535, 65535, 65535, 65535, 65535}};

void draw_cursor(int x, int y) {
	int i, j;
	for (i=0; i<15; i++)
     6cc:	a0e9883a 	add	r20,r20,r3
     6d0:	98e7883a 	add	r19,r19,r3
     6d4:	a4400726 	beq	r20,r17,6f4 <draw_cursor+0x88>
		for (j=0; j<15; j++)
			if (smiley_img[i][j] != 65535)
				put_pixel(j+x-7, i+y-7, smiley_img[i][j]);
}
     6d8:	a0c007a4 	muli	r3,r20,30
     6dc:	00800034 	movhi	r2,0
     6e0:	1098d804 	addi	r2,r2,25440
     6e4:	18a1883a 	add	r16,r3,r2
     6e8:	acbffe44 	addi	r18,r21,-7
     6ec:	0023883a 	mov	r17,zero
     6f0:	003fea06 	br	69c <draw_cursor+0x30>
     6f4:	dfc00617 	ldw	ra,24(sp)
     6f8:	dd400517 	ldw	r21,20(sp)
     6fc:	dd000417 	ldw	r20,16(sp)
     700:	dcc00317 	ldw	r19,12(sp)
     704:	dc800217 	ldw	r18,8(sp)
     708:	dc400117 	ldw	r17,4(sp)
     70c:	dc000017 	ldw	r16,0(sp)
     710:	dec00704 	addi	sp,sp,28
     714:	f800283a 	ret

00000718 <init_mouse>:
#define MSG1 6
#define MSG2 7
#define MSG3 8


alt_up_ps2_dev *init_mouse() {
     718:	defffb04 	addi	sp,sp,-20
     71c:	dfc00415 	stw	ra,16(sp)
     720:	dc800315 	stw	r18,12(sp)
     724:	dc400215 	stw	r17,8(sp)
     728:	dc000115 	stw	r16,4(sp)
	alt_up_ps2_dev *mouse = alt_up_ps2_open_dev("/dev/PS2_Port");
     72c:	01000034 	movhi	r4,0
     730:	21161804 	addi	r4,r4,22624
     734:	0001a040 	call	1a04 <alt_up_ps2_open_dev>
     738:	1021883a 	mov	r16,r2

	alt_up_ps2_init(mouse);
     73c:	1009883a 	mov	r4,r2
     740:	0001c940 	call	1c94 <alt_up_ps2_init>
	alt_up_ps2_clear_fifo(mouse);
     744:	8009883a 	mov	r4,r16
     748:	0001a240 	call	1a24 <alt_up_ps2_clear_fifo>

	alt_up_ps2_write_data_byte(mouse, 0xFF);
     74c:	8009883a 	mov	r4,r16
     750:	01403fc4 	movi	r5,255
     754:	0001bb00 	call	1bb0 <alt_up_ps2_write_data_byte>
     758:	04400044 	movi	r17,1
     75c:	04802a84 	movi	r18,170
	int status;
	
	while (state != ERROR && state != MSG1) {
		unsigned char data;
		do {
			status = alt_up_ps2_read_data_byte(mouse, &data);
     760:	8009883a 	mov	r4,r16
     764:	d80b883a 	mov	r5,sp
     768:	0001a540 	call	1a54 <alt_up_ps2_read_data_byte>
		} while (status < 0);
     76c:	103ffc16 	blt	r2,zero,760 <init_mouse+0x48>
		
		switch (state) {
     770:	008000c4 	movi	r2,3
     774:	88802626 	beq	r17,r2,810 <init_mouse+0xf8>
     778:	14400316 	blt	r2,r17,788 <init_mouse+0x70>
     77c:	00800044 	movi	r2,1
     780:	8880441e 	bne	r17,r2,894 <init_mouse+0x17c>
     784:	00000506 	br	79c <init_mouse+0x84>
     788:	00800104 	movi	r2,4
     78c:	88802626 	beq	r17,r2,828 <init_mouse+0x110>
     790:	00800144 	movi	r2,5
     794:	88803f1e 	bne	r17,r2,894 <init_mouse+0x17c>
     798:	00003206 	br	864 <init_mouse+0x14c>
			case INIT:
				if (data == 0xF4) {
     79c:	d9400003 	ldbu	r5,0(sp)
     7a0:	28c03fcc 	andi	r3,r5,255
     7a4:	00803d04 	movi	r2,244
     7a8:	1880051e 	bne	r3,r2,7c0 <init_mouse+0xa8>
					state = ACK;
					alt_printf("Mouse sent ACK (0xF4).");
     7ac:	01000034 	movhi	r4,0
     7b0:	21161c04 	addi	r4,r4,22640
     7b4:	0000b440 	call	b44 <alt_printf>
     7b8:	044000c4 	movi	r17,3
     7bc:	00003906 	br	8a4 <init_mouse+0x18c>
				} else if (data == 0xAA) {
     7c0:	28803fcc 	andi	r2,r5,255
     7c4:	1480051e 	bne	r2,r18,7dc <init_mouse+0xc4>
					state = OK;
					alt_printf("Mouse skipped ACK (0xF4).");
     7c8:	01000034 	movhi	r4,0
     7cc:	21162204 	addi	r4,r4,22664
     7d0:	0000b440 	call	b44 <alt_printf>
     7d4:	04400104 	movi	r17,4
     7d8:	00003206 	br	8a4 <init_mouse+0x18c>
				} else { 
					if (data == 0xFC) {
     7dc:	28c03fcc 	andi	r3,r5,255
     7e0:	00803f04 	movi	r2,252
     7e4:	1880051e 	bne	r3,r2,7fc <init_mouse+0xe4>
						state = ERROR;
						alt_printf("Mouse replied with an error message (0xFC).\n");
     7e8:	01000034 	movhi	r4,0
     7ec:	21162904 	addi	r4,r4,22692
     7f0:	0000b440 	call	b44 <alt_printf>
     7f4:	0021883a 	mov	r16,zero
     7f8:	00002f06 	br	8b8 <init_mouse+0x1a0>
					} else {
						alt_printf("Mouse replied with an unknown message: 0x%x. Ignoring...\n", data);
     7fc:	01000034 	movhi	r4,0
     800:	21163504 	addi	r4,r4,22740
     804:	29403fcc 	andi	r5,r5,255
     808:	0000b440 	call	b44 <alt_printf>
     80c:	00002506 	br	8a4 <init_mouse+0x18c>
					}
				}
				break;
			case ACK:
				if (data == 0xAA) {
     810:	d8800003 	ldbu	r2,0(sp)
     814:	14802626 	beq	r2,r18,8b0 <init_mouse+0x198>
					state = OK;
				} else {
					alt_printf("Mouse replied sent unknown message: %x. Expected 0xAA. Ignoring...\n");
     818:	01000034 	movhi	r4,0
     81c:	21164404 	addi	r4,r4,22800
     820:	0000b440 	call	b44 <alt_printf>
     824:	00001f06 	br	8a4 <init_mouse+0x18c>
				}
				break;
			case OK:
				if (data == 0x00) {
     828:	d8800003 	ldbu	r2,0(sp)
     82c:	1000081e 	bne	r2,zero,850 <init_mouse+0x138>
					state = ENABLING;
					alt_up_ps2_write_data_byte(mouse, 0xF4);;
     830:	8009883a 	mov	r4,r16
     834:	01403d04 	movi	r5,244
     838:	0001bb00 	call	1bb0 <alt_up_ps2_write_data_byte>
					alt_printf("Mouse ready. Enabling position and button status messages...\n");
     83c:	01000034 	movhi	r4,0
     840:	21165504 	addi	r4,r4,22868
     844:	0000b440 	call	b44 <alt_printf>
     848:	04400144 	movi	r17,5
     84c:	00001506 	br	8a4 <init_mouse+0x18c>
				} else {
					state = ACK; // Back to waiting for 0xAA00.
					alt_printf("Mouse replied sent unknown byte: %x. Expected 0x00. Ignoring...\n");
     850:	01000034 	movhi	r4,0
     854:	21166504 	addi	r4,r4,22932
     858:	0000b440 	call	b44 <alt_printf>
     85c:	044000c4 	movi	r17,3
     860:	00001006 	br	8a4 <init_mouse+0x18c>
				}
				break;
			case ENABLING:
				if (data == 0xFA) {
     864:	d8c00003 	ldbu	r3,0(sp)
     868:	00803e84 	movi	r2,250
     86c:	1880051e 	bne	r3,r2,884 <init_mouse+0x16c>
					state = MSG1;
					alt_printf("OK ! Waiting for messages.\n");
     870:	01000034 	movhi	r4,0
     874:	21167604 	addi	r4,r4,23000
     878:	0000b440 	call	b44 <alt_printf>
     87c:	04400184 	movi	r17,6
     880:	00000806 	br	8a4 <init_mouse+0x18c>
				} else {
					alt_printf("Mouse replied sent unknown message: %x. Expected 0xF4. Ignoring...\n");
     884:	01000034 	movhi	r4,0
     888:	21167d04 	addi	r4,r4,23028
     88c:	0000b440 	call	b44 <alt_printf>
     890:	00000406 	br	8a4 <init_mouse+0x18c>
	alt_up_ps2_write_data_byte(mouse, 0xFF);
	
	int state = INIT;
	int status;
	
	while (state != ERROR && state != MSG1) {
     894:	00800084 	movi	r2,2
     898:	8880021e 	bne	r17,r2,8a4 <init_mouse+0x18c>
     89c:	0021883a 	mov	r16,zero
     8a0:	00000506 	br	8b8 <init_mouse+0x1a0>
     8a4:	00800184 	movi	r2,6
     8a8:	88800326 	beq	r17,r2,8b8 <init_mouse+0x1a0>
     8ac:	003fac06 	br	760 <init_mouse+0x48>
     8b0:	04400104 	movi	r17,4
     8b4:	003ffb06 	br	8a4 <init_mouse+0x18c>
	
	if (state == ERROR)
		return 0;
	
	return mouse;
}
     8b8:	8005883a 	mov	r2,r16
     8bc:	dfc00417 	ldw	ra,16(sp)
     8c0:	dc800317 	ldw	r18,12(sp)
     8c4:	dc400217 	ldw	r17,8(sp)
     8c8:	dc000117 	ldw	r16,4(sp)
     8cc:	dec00504 	addi	sp,sp,20
     8d0:	f800283a 	ret

000008d4 <memcpy>:
     8d4:	01c003c4 	movi	r7,15
     8d8:	2007883a 	mov	r3,r4
     8dc:	3980032e 	bgeu	r7,r6,8ec <memcpy+0x18>
     8e0:	2904b03a 	or	r2,r5,r4
     8e4:	108000cc 	andi	r2,r2,3
     8e8:	10000926 	beq	r2,zero,910 <memcpy+0x3c>
     8ec:	30000626 	beq	r6,zero,908 <memcpy+0x34>
     8f0:	30cd883a 	add	r6,r6,r3
     8f4:	28800003 	ldbu	r2,0(r5)
     8f8:	29400044 	addi	r5,r5,1
     8fc:	18800005 	stb	r2,0(r3)
     900:	18c00044 	addi	r3,r3,1
     904:	30fffb1e 	bne	r6,r3,8f4 <memcpy+0x20>
     908:	2005883a 	mov	r2,r4
     90c:	f800283a 	ret
     910:	3811883a 	mov	r8,r7
     914:	200f883a 	mov	r7,r4
     918:	28c00017 	ldw	r3,0(r5)
     91c:	31bffc04 	addi	r6,r6,-16
     920:	38c00015 	stw	r3,0(r7)
     924:	28800117 	ldw	r2,4(r5)
     928:	38800115 	stw	r2,4(r7)
     92c:	28c00217 	ldw	r3,8(r5)
     930:	38c00215 	stw	r3,8(r7)
     934:	28800317 	ldw	r2,12(r5)
     938:	29400404 	addi	r5,r5,16
     93c:	38800315 	stw	r2,12(r7)
     940:	39c00404 	addi	r7,r7,16
     944:	41bff436 	bltu	r8,r6,918 <memcpy+0x44>
     948:	008000c4 	movi	r2,3
     94c:	1180072e 	bgeu	r2,r6,96c <memcpy+0x98>
     950:	1007883a 	mov	r3,r2
     954:	28800017 	ldw	r2,0(r5)
     958:	31bfff04 	addi	r6,r6,-4
     95c:	29400104 	addi	r5,r5,4
     960:	38800015 	stw	r2,0(r7)
     964:	39c00104 	addi	r7,r7,4
     968:	19bffa36 	bltu	r3,r6,954 <memcpy+0x80>
     96c:	3807883a 	mov	r3,r7
     970:	003fde06 	br	8ec <memcpy+0x18>

00000974 <alt_irq_register>:
     974:	200f883a 	mov	r7,r4
     978:	008007c4 	movi	r2,31
     97c:	1100022e 	bgeu	r2,r4,988 <alt_irq_register+0x14>
     980:	00bffa84 	movi	r2,-22
     984:	f800283a 	ret
     988:	0011303a 	rdctl	r8,status
     98c:	013fff84 	movi	r4,-2
     990:	4104703a 	and	r2,r8,r4
     994:	1001703a 	wrctl	status,r2
     998:	380490fa 	slli	r2,r7,3
     99c:	00c000f4 	movhi	r3,3
     9a0:	18f6b204 	addi	r3,r3,-9528
     9a4:	10c5883a 	add	r2,r2,r3
     9a8:	11800015 	stw	r6,0(r2)
     9ac:	11400115 	stw	r5,4(r2)
     9b0:	30000e26 	beq	r6,zero,9ec <alt_irq_register+0x78>
     9b4:	000b303a 	rdctl	r5,status
     9b8:	2904703a 	and	r2,r5,r4
     9bc:	1001703a 	wrctl	status,r2
     9c0:	00c000f4 	movhi	r3,3
     9c4:	18f69e04 	addi	r3,r3,-9608
     9c8:	19000017 	ldw	r4,0(r3)
     9cc:	00800044 	movi	r2,1
     9d0:	11c4983a 	sll	r2,r2,r7
     9d4:	1104b03a 	or	r2,r2,r4
     9d8:	18800015 	stw	r2,0(r3)
     9dc:	18800017 	ldw	r2,0(r3)
     9e0:	100170fa 	wrctl	ienable,r2
     9e4:	2801703a 	wrctl	status,r5
     9e8:	00000e06 	br	a24 <alt_irq_register+0xb0>
     9ec:	000b303a 	rdctl	r5,status
     9f0:	00bfff84 	movi	r2,-2
     9f4:	2884703a 	and	r2,r5,r2
     9f8:	1001703a 	wrctl	status,r2
     9fc:	00c000f4 	movhi	r3,3
     a00:	18f69e04 	addi	r3,r3,-9608
     a04:	19000017 	ldw	r4,0(r3)
     a08:	00bfff84 	movi	r2,-2
     a0c:	11c4183a 	rol	r2,r2,r7
     a10:	1104703a 	and	r2,r2,r4
     a14:	18800015 	stw	r2,0(r3)
     a18:	18800017 	ldw	r2,0(r3)
     a1c:	100170fa 	wrctl	ienable,r2
     a20:	2801703a 	wrctl	status,r5
     a24:	4001703a 	wrctl	status,r8
     a28:	0005883a 	mov	r2,zero
     a2c:	f800283a 	ret

00000a30 <alt_load>:
     a30:	deffff04 	addi	sp,sp,-4
     a34:	dfc00015 	stw	ra,0(sp)
     a38:	01000034 	movhi	r4,0
     a3c:	2116d804 	addi	r4,r4,23392
     a40:	00c00034 	movhi	r3,0
     a44:	18d6d804 	addi	r3,r3,23392
     a48:	20c00926 	beq	r4,r3,a70 <alt_load+0x40>
     a4c:	018000f4 	movhi	r6,3
     a50:	31b69b04 	addi	r6,r6,-9620
     a54:	19800626 	beq	r3,r6,a70 <alt_load+0x40>
     a58:	01400104 	movi	r5,4
     a5c:	20800017 	ldw	r2,0(r4)
     a60:	18800015 	stw	r2,0(r3)
     a64:	1947883a 	add	r3,r3,r5
     a68:	2149883a 	add	r4,r4,r5
     a6c:	30fffb1e 	bne	r6,r3,a5c <alt_load+0x2c>
     a70:	01000034 	movhi	r4,0
     a74:	21000804 	addi	r4,r4,32
     a78:	00c00034 	movhi	r3,0
     a7c:	18c00804 	addi	r3,r3,32
     a80:	20c00926 	beq	r4,r3,aa8 <alt_load+0x78>
     a84:	01800034 	movhi	r6,0
     a88:	31805a04 	addi	r6,r6,360
     a8c:	19800626 	beq	r3,r6,aa8 <alt_load+0x78>
     a90:	01400104 	movi	r5,4
     a94:	20800017 	ldw	r2,0(r4)
     a98:	18800015 	stw	r2,0(r3)
     a9c:	1947883a 	add	r3,r3,r5
     aa0:	2149883a 	add	r4,r4,r5
     aa4:	30fffb1e 	bne	r6,r3,a94 <alt_load+0x64>
     aa8:	01000034 	movhi	r4,0
     aac:	21160104 	addi	r4,r4,22532
     ab0:	00c00034 	movhi	r3,0
     ab4:	18d60104 	addi	r3,r3,22532
     ab8:	20c00926 	beq	r4,r3,ae0 <alt_load+0xb0>
     abc:	01800034 	movhi	r6,0
     ac0:	3196d804 	addi	r6,r6,23392
     ac4:	19800626 	beq	r3,r6,ae0 <alt_load+0xb0>
     ac8:	01400104 	movi	r5,4
     acc:	20800017 	ldw	r2,0(r4)
     ad0:	18800015 	stw	r2,0(r3)
     ad4:	1947883a 	add	r3,r3,r5
     ad8:	2149883a 	add	r4,r4,r5
     adc:	30fffb1e 	bne	r6,r3,acc <alt_load+0x9c>
     ae0:	0002c5c0 	call	2c5c <alt_dcache_flush_all>
     ae4:	0002d480 	call	2d48 <alt_icache_flush_all>
     ae8:	dfc00017 	ldw	ra,0(sp)
     aec:	dec00104 	addi	sp,sp,4
     af0:	f800283a 	ret

00000af4 <alt_main>:
     af4:	defffe04 	addi	sp,sp,-8
     af8:	dfc00115 	stw	ra,4(sp)
     afc:	dc000015 	stw	r16,0(sp)
     b00:	0009883a 	mov	r4,zero
     b04:	0000d480 	call	d48 <alt_irq_init>
     b08:	0000d680 	call	d68 <alt_sys_init>
     b0c:	01800034 	movhi	r6,0
     b10:	31968e04 	addi	r6,r6,23096
     b14:	3009883a 	mov	r4,r6
     b18:	300b883a 	mov	r5,r6
     b1c:	0002dcc0 	call	2dcc <alt_io_redirect>
     b20:	d1201717 	ldw	r4,-32676(gp)
     b24:	d1601817 	ldw	r5,-32672(gp)
     b28:	d1a01917 	ldw	r6,-32668(gp)
     b2c:	00005b00 	call	5b0 <main>
     b30:	1021883a 	mov	r16,r2
     b34:	01000044 	movi	r4,1
     b38:	0002b800 	call	2b80 <close>
     b3c:	8009883a 	mov	r4,r16
     b40:	00032500 	call	3250 <exit>

00000b44 <alt_printf>:
     b44:	defff804 	addi	sp,sp,-32
     b48:	dfc00415 	stw	ra,16(sp)
     b4c:	dc800315 	stw	r18,12(sp)
     b50:	dc400215 	stw	r17,8(sp)
     b54:	dc000115 	stw	r16,4(sp)
     b58:	d9400515 	stw	r5,20(sp)
     b5c:	d9800615 	stw	r6,24(sp)
     b60:	d9c00715 	stw	r7,28(sp)
     b64:	d8800504 	addi	r2,sp,20
     b68:	d8800015 	stw	r2,0(sp)
     b6c:	2023883a 	mov	r17,r4
     b70:	00005d06 	br	ce8 <alt_printf+0x1a4>
     b74:	8c400044 	addi	r17,r17,1
     b78:	21003fcc 	andi	r4,r4,255
     b7c:	2100201c 	xori	r4,r4,128
     b80:	213fe004 	addi	r4,r4,-128
     b84:	00800944 	movi	r2,37
     b88:	20800226 	beq	r4,r2,b94 <alt_printf+0x50>
     b8c:	0000d200 	call	d20 <alt_putchar>
     b90:	00005506 	br	ce8 <alt_printf+0x1a4>
     b94:	89400003 	ldbu	r5,0(r17)
     b98:	8c400044 	addi	r17,r17,1
     b9c:	29003fcc 	andi	r4,r5,255
     ba0:	2100201c 	xori	r4,r4,128
     ba4:	213fe004 	addi	r4,r4,-128
     ba8:	20005726 	beq	r4,zero,d08 <alt_printf+0x1c4>
     bac:	00800944 	movi	r2,37
     bb0:	2080021e 	bne	r4,r2,bbc <alt_printf+0x78>
     bb4:	0000d200 	call	d20 <alt_putchar>
     bb8:	00004b06 	br	ce8 <alt_printf+0x1a4>
     bbc:	28c03fcc 	andi	r3,r5,255
     bc0:	18c0201c 	xori	r3,r3,128
     bc4:	18ffe004 	addi	r3,r3,-128
     bc8:	008018c4 	movi	r2,99
     bcc:	1880061e 	bne	r3,r2,be8 <alt_printf+0xa4>
     bd0:	d8c00017 	ldw	r3,0(sp)
     bd4:	18800104 	addi	r2,r3,4
     bd8:	d8800015 	stw	r2,0(sp)
     bdc:	19000017 	ldw	r4,0(r3)
     be0:	0000d200 	call	d20 <alt_putchar>
     be4:	00004006 	br	ce8 <alt_printf+0x1a4>
     be8:	28c03fcc 	andi	r3,r5,255
     bec:	18c0201c 	xori	r3,r3,128
     bf0:	18ffe004 	addi	r3,r3,-128
     bf4:	00801e04 	movi	r2,120
     bf8:	1880231e 	bne	r3,r2,c88 <alt_printf+0x144>
     bfc:	d8c00017 	ldw	r3,0(sp)
     c00:	18800104 	addi	r2,r3,4
     c04:	d8800015 	stw	r2,0(sp)
     c08:	1c800017 	ldw	r18,0(r3)
     c0c:	90000326 	beq	r18,zero,c1c <alt_printf+0xd8>
     c10:	90bc002c 	andhi	r2,r18,61440
     c14:	10000426 	beq	r2,zero,c28 <alt_printf+0xe4>
     c18:	00003906 	br	d00 <alt_printf+0x1bc>
     c1c:	01000c04 	movi	r4,48
     c20:	0000d200 	call	d20 <alt_putchar>
     c24:	00003006 	br	ce8 <alt_printf+0x1a4>
     c28:	04000704 	movi	r16,28
     c2c:	013fff04 	movi	r4,-4
     c30:	00c003c4 	movi	r3,15
     c34:	8121883a 	add	r16,r16,r4
     c38:	1c04983a 	sll	r2,r3,r16
     c3c:	9084703a 	and	r2,r18,r2
     c40:	103ffc26 	beq	r2,zero,c34 <alt_printf+0xf0>
     c44:	80002816 	blt	r16,zero,ce8 <alt_printf+0x1a4>
     c48:	008003c4 	movi	r2,15
     c4c:	1404983a 	sll	r2,r2,r16
     c50:	9084703a 	and	r2,r18,r2
     c54:	1406d83a 	srl	r3,r2,r16
     c58:	00800244 	movi	r2,9
     c5c:	10c00236 	bltu	r2,r3,c68 <alt_printf+0x124>
     c60:	19000c04 	addi	r4,r3,48
     c64:	00000106 	br	c6c <alt_printf+0x128>
     c68:	190015c4 	addi	r4,r3,87
     c6c:	21003fcc 	andi	r4,r4,255
     c70:	2100201c 	xori	r4,r4,128
     c74:	213fe004 	addi	r4,r4,-128
     c78:	0000d200 	call	d20 <alt_putchar>
     c7c:	843fff04 	addi	r16,r16,-4
     c80:	80001916 	blt	r16,zero,ce8 <alt_printf+0x1a4>
     c84:	003ff006 	br	c48 <alt_printf+0x104>
     c88:	28c03fcc 	andi	r3,r5,255
     c8c:	18c0201c 	xori	r3,r3,128
     c90:	18ffe004 	addi	r3,r3,-128
     c94:	00801cc4 	movi	r2,115
     c98:	1880131e 	bne	r3,r2,ce8 <alt_printf+0x1a4>
     c9c:	d8800017 	ldw	r2,0(sp)
     ca0:	10c00104 	addi	r3,r2,4
     ca4:	d8c00015 	stw	r3,0(sp)
     ca8:	14000017 	ldw	r16,0(r2)
     cac:	81000003 	ldbu	r4,0(r16)
     cb0:	20803fcc 	andi	r2,r4,255
     cb4:	1080201c 	xori	r2,r2,128
     cb8:	10bfe004 	addi	r2,r2,-128
     cbc:	10000a26 	beq	r2,zero,ce8 <alt_printf+0x1a4>
     cc0:	84000044 	addi	r16,r16,1
     cc4:	21003fcc 	andi	r4,r4,255
     cc8:	2100201c 	xori	r4,r4,128
     ccc:	213fe004 	addi	r4,r4,-128
     cd0:	0000d200 	call	d20 <alt_putchar>
     cd4:	81000003 	ldbu	r4,0(r16)
     cd8:	20803fcc 	andi	r2,r4,255
     cdc:	1080201c 	xori	r2,r2,128
     ce0:	10bfe004 	addi	r2,r2,-128
     ce4:	103ff61e 	bne	r2,zero,cc0 <alt_printf+0x17c>
     ce8:	89000003 	ldbu	r4,0(r17)
     cec:	20803fcc 	andi	r2,r4,255
     cf0:	1080201c 	xori	r2,r2,128
     cf4:	10bfe004 	addi	r2,r2,-128
     cf8:	103f9e1e 	bne	r2,zero,b74 <alt_printf+0x30>
     cfc:	00000206 	br	d08 <alt_printf+0x1c4>
     d00:	04000704 	movi	r16,28
     d04:	003fd006 	br	c48 <alt_printf+0x104>
     d08:	dfc00417 	ldw	ra,16(sp)
     d0c:	dc800317 	ldw	r18,12(sp)
     d10:	dc400217 	ldw	r17,8(sp)
     d14:	dc000117 	ldw	r16,4(sp)
     d18:	dec00804 	addi	sp,sp,32
     d1c:	f800283a 	ret

00000d20 <alt_putchar>:
     d20:	deffff04 	addi	sp,sp,-4
     d24:	dfc00015 	stw	ra,0(sp)
     d28:	008000f4 	movhi	r2,3
     d2c:	10b69604 	addi	r2,r2,-9640
     d30:	10800017 	ldw	r2,0(r2)
     d34:	11400217 	ldw	r5,8(r2)
     d38:	00032fc0 	call	32fc <putc>
     d3c:	dfc00017 	ldw	ra,0(sp)
     d40:	dec00104 	addi	sp,sp,4
     d44:	f800283a 	ret

00000d48 <alt_irq_init>:
     d48:	deffff04 	addi	sp,sp,-4
     d4c:	dfc00015 	stw	ra,0(sp)
     d50:	00030e40 	call	30e4 <altera_nios2_qsys_irq_init>
     d54:	00800044 	movi	r2,1
     d58:	1001703a 	wrctl	status,r2
     d5c:	dfc00017 	ldw	ra,0(sp)
     d60:	dec00104 	addi	sp,sp,4
     d64:	f800283a 	ret

00000d68 <alt_sys_init>:
     d68:	defffd04 	addi	sp,sp,-12
     d6c:	dfc00215 	stw	ra,8(sp)
     d70:	dc400115 	stw	r17,4(sp)
     d74:	dc000015 	stw	r16,0(sp)
     d78:	04400204 	movi	r17,8
     d7c:	01040034 	movhi	r4,4096
     d80:	21080004 	addi	r4,r4,8192
     d84:	000b883a 	mov	r5,zero
     d88:	000d883a 	mov	r6,zero
     d8c:	880f883a 	mov	r7,r17
     d90:	000163c0 	call	163c <alt_avalon_timer_sc_init>
     d94:	040000f4 	movhi	r16,3
     d98:	842f5304 	addi	r16,r16,-17076
     d9c:	8009883a 	mov	r4,r16
     da0:	000b883a 	mov	r5,zero
     da4:	880d883a 	mov	r6,r17
     da8:	00011380 	call	1138 <altera_avalon_jtag_uart_init>
     dac:	044000f4 	movhi	r17,3
     db0:	8c769004 	addi	r17,r17,-9664
     db4:	813ff604 	addi	r4,r16,-40
     db8:	880b883a 	mov	r5,r17
     dbc:	0002c680 	call	2c68 <alt_dev_llist_insert>
     dc0:	010000f4 	movhi	r4,3
     dc4:	21336104 	addi	r4,r4,-12924
     dc8:	880b883a 	mov	r5,r17
     dcc:	0002c680 	call	2c68 <alt_dev_llist_insert>
     dd0:	010000f4 	movhi	r4,3
     dd4:	21336d04 	addi	r4,r4,-12876
     dd8:	880b883a 	mov	r5,r17
     ddc:	0002c680 	call	2c68 <alt_dev_llist_insert>
     de0:	040000f4 	movhi	r16,3
     de4:	84337904 	addi	r16,r16,-12828
     de8:	8009883a 	mov	r4,r16
     dec:	00017700 	call	1770 <alt_up_character_lcd_init>
     df0:	8009883a 	mov	r4,r16
     df4:	880b883a 	mov	r5,r17
     df8:	0002c680 	call	2c68 <alt_dev_llist_insert>
     dfc:	010000f4 	movhi	r4,3
     e00:	21338404 	addi	r4,r4,-12784
     e04:	880b883a 	mov	r5,r17
     e08:	0002c680 	call	2c68 <alt_dev_llist_insert>
     e0c:	010000f4 	movhi	r4,3
     e10:	21338f04 	addi	r4,r4,-12740
     e14:	880b883a 	mov	r5,r17
     e18:	0002c680 	call	2c68 <alt_dev_llist_insert>
     e1c:	010000f4 	movhi	r4,3
     e20:	21339a04 	addi	r4,r4,-12696
     e24:	880b883a 	mov	r5,r17
     e28:	0002c680 	call	2c68 <alt_dev_llist_insert>
     e2c:	010000f4 	movhi	r4,3
     e30:	2133a504 	addi	r4,r4,-12652
     e34:	880b883a 	mov	r5,r17
     e38:	0002c680 	call	2c68 <alt_dev_llist_insert>
     e3c:	010000f4 	movhi	r4,3
     e40:	2133b004 	addi	r4,r4,-12608
     e44:	880b883a 	mov	r5,r17
     e48:	0002c680 	call	2c68 <alt_dev_llist_insert>
     e4c:	010000f4 	movhi	r4,3
     e50:	2133bb04 	addi	r4,r4,-12564
     e54:	880b883a 	mov	r5,r17
     e58:	0002c680 	call	2c68 <alt_dev_llist_insert>
     e5c:	010000f4 	movhi	r4,3
     e60:	2133c604 	addi	r4,r4,-12520
     e64:	880b883a 	mov	r5,r17
     e68:	0002c680 	call	2c68 <alt_dev_llist_insert>
     e6c:	010000f4 	movhi	r4,3
     e70:	2133d104 	addi	r4,r4,-12476
     e74:	880b883a 	mov	r5,r17
     e78:	0002c680 	call	2c68 <alt_dev_llist_insert>
     e7c:	040000f4 	movhi	r16,3
     e80:	8433dc04 	addi	r16,r16,-12432
     e84:	8009883a 	mov	r4,r16
     e88:	0001c940 	call	1c94 <alt_up_ps2_init>
     e8c:	8009883a 	mov	r4,r16
     e90:	880b883a 	mov	r5,r17
     e94:	0002c680 	call	2c68 <alt_dev_llist_insert>
     e98:	010000f4 	movhi	r4,3
     e9c:	2133ea04 	addi	r4,r4,-12376
     ea0:	880b883a 	mov	r5,r17
     ea4:	0002c680 	call	2c68 <alt_dev_llist_insert>
     ea8:	010000f4 	movhi	r4,3
     eac:	2133f504 	addi	r4,r4,-12332
     eb0:	20800a17 	ldw	r2,40(r4)
     eb4:	10800104 	addi	r2,r2,4
     eb8:	10c0000b 	ldhu	r3,0(r2)
     ebc:	20c00c15 	stw	r3,48(r4)
     ec0:	10800017 	ldw	r2,0(r2)
     ec4:	100ad43a 	srli	r5,r2,16
     ec8:	21400d15 	stw	r5,52(r4)
     ecc:	00801004 	movi	r2,64
     ed0:	10c00436 	bltu	r2,r3,ee4 <alt_sys_init+0x17c>
     ed4:	00800fc4 	movi	r2,63
     ed8:	20800f15 	stw	r2,60(r4)
     edc:	00800184 	movi	r2,6
     ee0:	20801015 	stw	r2,64(r4)
     ee4:	00800804 	movi	r2,32
     ee8:	11400436 	bltu	r2,r5,efc <alt_sys_init+0x194>
     eec:	00c007c4 	movi	r3,31
     ef0:	008000f4 	movhi	r2,3
     ef4:	10b3f504 	addi	r2,r2,-12332
     ef8:	10c01115 	stw	r3,68(r2)
     efc:	040000f4 	movhi	r16,3
     f00:	8433f504 	addi	r16,r16,-12332
     f04:	8009883a 	mov	r4,r16
     f08:	000204c0 	call	204c <alt_up_char_buffer_init>
     f0c:	8009883a 	mov	r4,r16
     f10:	014000f4 	movhi	r5,3
     f14:	29769004 	addi	r5,r5,-9664
     f18:	0002c680 	call	2c68 <alt_dev_llist_insert>
     f1c:	018000f4 	movhi	r6,3
     f20:	31b40704 	addi	r6,r6,-12260
     f24:	30c00a17 	ldw	r3,40(r6)
     f28:	18800017 	ldw	r2,0(r3)
     f2c:	30800b15 	stw	r2,44(r6)
     f30:	18800117 	ldw	r2,4(r3)
     f34:	30800c15 	stw	r2,48(r6)
     f38:	19000204 	addi	r4,r3,8
     f3c:	2080000b 	ldhu	r2,0(r4)
     f40:	30800f15 	stw	r2,60(r6)
     f44:	20800017 	ldw	r2,0(r4)
     f48:	1004d43a 	srli	r2,r2,16
     f4c:	30801015 	stw	r2,64(r6)
     f50:	18c00304 	addi	r3,r3,12
     f54:	18800017 	ldw	r2,0(r3)
     f58:	1005d07a 	srai	r2,r2,1
     f5c:	01000044 	movi	r4,1
     f60:	1104703a 	and	r2,r2,r4
     f64:	30800d15 	stw	r2,52(r6)
     f68:	18800017 	ldw	r2,0(r3)
     f6c:	1005d13a 	srai	r2,r2,4
     f70:	114003cc 	andi	r5,r2,15
     f74:	31400e15 	stw	r5,56(r6)
     f78:	1a000017 	ldw	r8,0(r3)
     f7c:	400ed43a 	srli	r7,r8,16
     f80:	2900021e 	bne	r5,r4,f8c <alt_sys_init+0x224>
     f84:	30001115 	stw	zero,68(r6)
     f88:	00000b06 	br	fb8 <alt_sys_init+0x250>
     f8c:	00800084 	movi	r2,2
     f90:	2880051e 	bne	r5,r2,fa8 <alt_sys_init+0x240>
     f94:	00c00044 	movi	r3,1
     f98:	008000f4 	movhi	r2,3
     f9c:	10b40704 	addi	r2,r2,-12260
     fa0:	10c01115 	stw	r3,68(r2)
     fa4:	00000406 	br	fb8 <alt_sys_init+0x250>
     fa8:	00c00084 	movi	r3,2
     fac:	008000f4 	movhi	r2,3
     fb0:	10b40704 	addi	r2,r2,-12260
     fb4:	10c01115 	stw	r3,68(r2)
     fb8:	010000f4 	movhi	r4,3
     fbc:	21340704 	addi	r4,r4,-12260
     fc0:	38c03fcc 	andi	r3,r7,255
     fc4:	01800804 	movi	r6,32
     fc8:	30c5c83a 	sub	r2,r6,r3
     fcc:	017fffc4 	movi	r5,-1
     fd0:	2884d83a 	srl	r2,r5,r2
     fd4:	20801215 	stw	r2,72(r4)
     fd8:	20801117 	ldw	r2,68(r4)
     fdc:	1887883a 	add	r3,r3,r2
     fe0:	20c01315 	stw	r3,76(r4)
     fe4:	4004d63a 	srli	r2,r8,24
     fe8:	308dc83a 	sub	r6,r6,r2
     fec:	298ad83a 	srl	r5,r5,r6
     ff0:	21401415 	stw	r5,80(r4)
     ff4:	014000f4 	movhi	r5,3
     ff8:	29769004 	addi	r5,r5,-9664
     ffc:	0002c680 	call	2c68 <alt_dev_llist_insert>
    1000:	dfc00217 	ldw	ra,8(sp)
    1004:	dc400117 	ldw	r17,4(sp)
    1008:	dc000017 	ldw	r16,0(sp)
    100c:	dec00304 	addi	sp,sp,12
    1010:	f800283a 	ret

00001014 <altera_avalon_jtag_uart_ioctl_fd>:
    1014:	deffff04 	addi	sp,sp,-4
    1018:	dfc00015 	stw	ra,0(sp)
    101c:	21000017 	ldw	r4,0(r4)
    1020:	21000a04 	addi	r4,r4,40
    1024:	00012e40 	call	12e4 <altera_avalon_jtag_uart_ioctl>
    1028:	dfc00017 	ldw	ra,0(sp)
    102c:	dec00104 	addi	sp,sp,4
    1030:	f800283a 	ret

00001034 <altera_avalon_jtag_uart_close_fd>:
    1034:	deffff04 	addi	sp,sp,-4
    1038:	dfc00015 	stw	ra,0(sp)
    103c:	2005883a 	mov	r2,r4
    1040:	21000017 	ldw	r4,0(r4)
    1044:	21000a04 	addi	r4,r4,40
    1048:	11400217 	ldw	r5,8(r2)
    104c:	00010ac0 	call	10ac <altera_avalon_jtag_uart_close>
    1050:	dfc00017 	ldw	ra,0(sp)
    1054:	dec00104 	addi	sp,sp,4
    1058:	f800283a 	ret

0000105c <altera_avalon_jtag_uart_write_fd>:
    105c:	deffff04 	addi	sp,sp,-4
    1060:	dfc00015 	stw	ra,0(sp)
    1064:	2005883a 	mov	r2,r4
    1068:	21000017 	ldw	r4,0(r4)
    106c:	21000a04 	addi	r4,r4,40
    1070:	11c00217 	ldw	r7,8(r2)
    1074:	00014c00 	call	14c0 <altera_avalon_jtag_uart_write>
    1078:	dfc00017 	ldw	ra,0(sp)
    107c:	dec00104 	addi	sp,sp,4
    1080:	f800283a 	ret

00001084 <altera_avalon_jtag_uart_read_fd>:
    1084:	deffff04 	addi	sp,sp,-4
    1088:	dfc00015 	stw	ra,0(sp)
    108c:	2005883a 	mov	r2,r4
    1090:	21000017 	ldw	r4,0(r4)
    1094:	21000a04 	addi	r4,r4,40
    1098:	11c00217 	ldw	r7,8(r2)
    109c:	00013580 	call	1358 <altera_avalon_jtag_uart_read>
    10a0:	dfc00017 	ldw	ra,0(sp)
    10a4:	dec00104 	addi	sp,sp,4
    10a8:	f800283a 	ret

000010ac <altera_avalon_jtag_uart_close>:
    10ac:	21800c17 	ldw	r6,48(r4)
    10b0:	2950000c 	andi	r5,r5,16384
    10b4:	280b003a 	cmpeq	r5,r5,zero
    10b8:	00000306 	br	10c8 <altera_avalon_jtag_uart_close+0x1c>
    10bc:	2800021e 	bne	r5,zero,10c8 <altera_avalon_jtag_uart_close+0x1c>
    10c0:	00bffd44 	movi	r2,-11
    10c4:	f800283a 	ret
    10c8:	20800d17 	ldw	r2,52(r4)
    10cc:	11800326 	beq	r2,r6,10dc <altera_avalon_jtag_uart_close+0x30>
    10d0:	20c00917 	ldw	r3,36(r4)
    10d4:	20800117 	ldw	r2,4(r4)
    10d8:	18bff836 	bltu	r3,r2,10bc <altera_avalon_jtag_uart_close+0x10>
    10dc:	0005883a 	mov	r2,zero
    10e0:	f800283a 	ret

000010e4 <altera_avalon_jtag_uart_timeout>:
    10e4:	20800017 	ldw	r2,0(r4)
    10e8:	10c00104 	addi	r3,r2,4
    10ec:	18800037 	ldwio	r2,0(r3)
    10f0:	01410004 	movi	r5,1024
    10f4:	1144703a 	and	r2,r2,r5
    10f8:	10000526 	beq	r2,zero,1110 <altera_avalon_jtag_uart_timeout+0x2c>
    10fc:	20800817 	ldw	r2,32(r4)
    1100:	1144b03a 	or	r2,r2,r5
    1104:	18800035 	stwio	r2,0(r3)
    1108:	20000915 	stw	zero,36(r4)
    110c:	00000606 	br	1128 <altera_avalon_jtag_uart_timeout+0x44>
    1110:	20c00917 	ldw	r3,36(r4)
    1114:	00a00034 	movhi	r2,32768
    1118:	10bfff04 	addi	r2,r2,-4
    111c:	10c00236 	bltu	r2,r3,1128 <altera_avalon_jtag_uart_timeout+0x44>
    1120:	18800044 	addi	r2,r3,1
    1124:	20800915 	stw	r2,36(r4)
    1128:	008000f4 	movhi	r2,3
    112c:	10b6a204 	addi	r2,r2,-9592
    1130:	10800017 	ldw	r2,0(r2)
    1134:	f800283a 	ret

00001138 <altera_avalon_jtag_uart_init>:
    1138:	defffe04 	addi	sp,sp,-8
    113c:	dfc00115 	stw	ra,4(sp)
    1140:	dc000015 	stw	r16,0(sp)
    1144:	2021883a 	mov	r16,r4
    1148:	00c00044 	movi	r3,1
    114c:	20c00815 	stw	r3,32(r4)
    1150:	20800017 	ldw	r2,0(r4)
    1154:	10c00135 	stwio	r3,4(r2)
    1158:	3009883a 	mov	r4,r6
    115c:	800b883a 	mov	r5,r16
    1160:	01800034 	movhi	r6,0
    1164:	31846c04 	addi	r6,r6,4528
    1168:	00009740 	call	974 <alt_irq_register>
    116c:	80000915 	stw	zero,36(r16)
    1170:	81000204 	addi	r4,r16,8
    1174:	008000f4 	movhi	r2,3
    1178:	10b6a204 	addi	r2,r2,-9592
    117c:	11400017 	ldw	r5,0(r2)
    1180:	01800034 	movhi	r6,0
    1184:	31843904 	addi	r6,r6,4324
    1188:	800f883a 	mov	r7,r16
    118c:	0002aec0 	call	2aec <alt_alarm_start>
    1190:	1000030e 	bge	r2,zero,11a0 <altera_avalon_jtag_uart_init+0x68>
    1194:	00a00034 	movhi	r2,32768
    1198:	10bfffc4 	addi	r2,r2,-1
    119c:	80800115 	stw	r2,4(r16)
    11a0:	dfc00117 	ldw	ra,4(sp)
    11a4:	dc000017 	ldw	r16,0(sp)
    11a8:	dec00204 	addi	sp,sp,8
    11ac:	f800283a 	ret

000011b0 <altera_avalon_jtag_uart_irq>:
    11b0:	22000017 	ldw	r8,0(r4)
    11b4:	03800104 	movi	r14,4
    11b8:	4399883a 	add	r12,r8,r14
    11bc:	037ffff4 	movhi	r13,65535
    11c0:	62c00037 	ldwio	r11,0(r12)
    11c4:	5880c00c 	andi	r2,r11,768
    11c8:	10004526 	beq	r2,zero,12e0 <altera_avalon_jtag_uart_irq+0x130>
    11cc:	5880400c 	andi	r2,r11,256
    11d0:	10002126 	beq	r2,zero,1258 <altera_avalon_jtag_uart_irq+0xa8>
    11d4:	20800a17 	ldw	r2,40(r4)
    11d8:	10800044 	addi	r2,r2,1
    11dc:	1081ffcc 	andi	r2,r2,2047
    11e0:	20c00b17 	ldw	r3,44(r4)
    11e4:	10c01626 	beq	r2,r3,1240 <altera_avalon_jtag_uart_irq+0x90>
    11e8:	02a00014 	movui	r10,32768
    11ec:	02400e04 	movi	r9,56
    11f0:	01c00044 	movi	r7,1
    11f4:	0181ffc4 	movi	r6,2047
    11f8:	41400037 	ldwio	r5,0(r8)
    11fc:	2a84703a 	and	r2,r5,r10
    1200:	10000d26 	beq	r2,zero,1238 <altera_avalon_jtag_uart_irq+0x88>
    1204:	20800a17 	ldw	r2,40(r4)
    1208:	1105883a 	add	r2,r2,r4
    120c:	1245883a 	add	r2,r2,r9
    1210:	11400005 	stb	r5,0(r2)
    1214:	20800a17 	ldw	r2,40(r4)
    1218:	11c5883a 	add	r2,r2,r7
    121c:	1184703a 	and	r2,r2,r6
    1220:	20800a15 	stw	r2,40(r4)
    1224:	20800a17 	ldw	r2,40(r4)
    1228:	11c5883a 	add	r2,r2,r7
    122c:	1184703a 	and	r2,r2,r6
    1230:	20c00b17 	ldw	r3,44(r4)
    1234:	10fff01e 	bne	r2,r3,11f8 <altera_avalon_jtag_uart_irq+0x48>
    1238:	2b44703a 	and	r2,r5,r13
    123c:	10000626 	beq	r2,zero,1258 <altera_avalon_jtag_uart_irq+0xa8>
    1240:	20800817 	ldw	r2,32(r4)
    1244:	00ffff84 	movi	r3,-2
    1248:	10c4703a 	and	r2,r2,r3
    124c:	20800815 	stw	r2,32(r4)
    1250:	60800035 	stwio	r2,0(r12)
    1254:	60800037 	ldwio	r2,0(r12)
    1258:	5880800c 	andi	r2,r11,512
    125c:	103fd826 	beq	r2,zero,11c0 <altera_avalon_jtag_uart_irq+0x10>
    1260:	5b44703a 	and	r2,r11,r13
    1264:	100ad43a 	srli	r5,r2,16
    1268:	283fd526 	beq	r5,zero,11c0 <altera_avalon_jtag_uart_irq+0x10>
    126c:	20c00d17 	ldw	r3,52(r4)
    1270:	20800c17 	ldw	r2,48(r4)
    1274:	18801126 	beq	r3,r2,12bc <altera_avalon_jtag_uart_irq+0x10c>
    1278:	02420e04 	movi	r9,2104
    127c:	01800044 	movi	r6,1
    1280:	01c1ffc4 	movi	r7,2047
    1284:	20800d17 	ldw	r2,52(r4)
    1288:	1105883a 	add	r2,r2,r4
    128c:	1245883a 	add	r2,r2,r9
    1290:	10800007 	ldb	r2,0(r2)
    1294:	40800035 	stwio	r2,0(r8)
    1298:	20800d17 	ldw	r2,52(r4)
    129c:	1185883a 	add	r2,r2,r6
    12a0:	11c4703a 	and	r2,r2,r7
    12a4:	20800d15 	stw	r2,52(r4)
    12a8:	298bc83a 	sub	r5,r5,r6
    12ac:	283fc426 	beq	r5,zero,11c0 <altera_avalon_jtag_uart_irq+0x10>
    12b0:	20c00d17 	ldw	r3,52(r4)
    12b4:	20800c17 	ldw	r2,48(r4)
    12b8:	18bff21e 	bne	r3,r2,1284 <altera_avalon_jtag_uart_irq+0xd4>
    12bc:	20c00817 	ldw	r3,32(r4)
    12c0:	00bfff44 	movi	r2,-3
    12c4:	1886703a 	and	r3,r3,r2
    12c8:	20c00815 	stw	r3,32(r4)
    12cc:	20800017 	ldw	r2,0(r4)
    12d0:	1385883a 	add	r2,r2,r14
    12d4:	10c00035 	stwio	r3,0(r2)
    12d8:	60800037 	ldwio	r2,0(r12)
    12dc:	003fb806 	br	11c0 <altera_avalon_jtag_uart_irq+0x10>
    12e0:	f800283a 	ret

000012e4 <altera_avalon_jtag_uart_ioctl>:
    12e4:	009a8044 	movi	r2,27137
    12e8:	28800326 	beq	r5,r2,12f8 <altera_avalon_jtag_uart_ioctl+0x14>
    12ec:	009a8084 	movi	r2,27138
    12f0:	2880171e 	bne	r5,r2,1350 <altera_avalon_jtag_uart_ioctl+0x6c>
    12f4:	00000d06 	br	132c <altera_avalon_jtag_uart_ioctl+0x48>
    12f8:	20c00117 	ldw	r3,4(r4)
    12fc:	00a00034 	movhi	r2,32768
    1300:	10bfffc4 	addi	r2,r2,-1
    1304:	18801226 	beq	r3,r2,1350 <altera_avalon_jtag_uart_ioctl+0x6c>
    1308:	31800017 	ldw	r6,0(r6)
    130c:	30ffff84 	addi	r3,r6,-2
    1310:	10bfff44 	addi	r2,r2,-3
    1314:	10c0022e 	bgeu	r2,r3,1320 <altera_avalon_jtag_uart_ioctl+0x3c>
    1318:	01a00034 	movhi	r6,32768
    131c:	31bfff84 	addi	r6,r6,-2
    1320:	21800115 	stw	r6,4(r4)
    1324:	0005883a 	mov	r2,zero
    1328:	f800283a 	ret
    132c:	20c00117 	ldw	r3,4(r4)
    1330:	00a00034 	movhi	r2,32768
    1334:	10bfffc4 	addi	r2,r2,-1
    1338:	18800526 	beq	r3,r2,1350 <altera_avalon_jtag_uart_ioctl+0x6c>
    133c:	20800917 	ldw	r2,36(r4)
    1340:	10c5803a 	cmpltu	r2,r2,r3
    1344:	30800015 	stw	r2,0(r6)
    1348:	0005883a 	mov	r2,zero
    134c:	f800283a 	ret
    1350:	00bff9c4 	movi	r2,-25
    1354:	f800283a 	ret

00001358 <altera_avalon_jtag_uart_read>:
    1358:	defff604 	addi	sp,sp,-40
    135c:	dfc00915 	stw	ra,36(sp)
    1360:	df000815 	stw	fp,32(sp)
    1364:	ddc00715 	stw	r23,28(sp)
    1368:	dd800615 	stw	r22,24(sp)
    136c:	dd400515 	stw	r21,20(sp)
    1370:	dd000415 	stw	r20,16(sp)
    1374:	dcc00315 	stw	r19,12(sp)
    1378:	dc800215 	stw	r18,8(sp)
    137c:	dc400115 	stw	r17,4(sp)
    1380:	dc000015 	stw	r16,0(sp)
    1384:	2025883a 	mov	r18,r4
    1388:	282f883a 	mov	r23,r5
    138c:	3027883a 	mov	r19,r6
    1390:	3839883a 	mov	fp,r7
    1394:	0180220e 	bge	zero,r6,1420 <altera_avalon_jtag_uart_read+0xc8>
    1398:	b82b883a 	mov	r21,r23
    139c:	95800a17 	ldw	r22,40(r18)
    13a0:	94400b17 	ldw	r17,44(r18)
    13a4:	b4400236 	bltu	r22,r17,13b0 <altera_avalon_jtag_uart_read+0x58>
    13a8:	b461c83a 	sub	r16,r22,r17
    13ac:	00000206 	br	13b8 <altera_avalon_jtag_uart_read+0x60>
    13b0:	00820004 	movi	r2,2048
    13b4:	1461c83a 	sub	r16,r2,r17
    13b8:	80000d26 	beq	r16,zero,13f0 <altera_avalon_jtag_uart_read+0x98>
    13bc:	9829883a 	mov	r20,r19
    13c0:	9c001d36 	bltu	r19,r16,1438 <altera_avalon_jtag_uart_read+0xe0>
    13c4:	91400e04 	addi	r5,r18,56
    13c8:	a809883a 	mov	r4,r21
    13cc:	2c4b883a 	add	r5,r5,r17
    13d0:	800d883a 	mov	r6,r16
    13d4:	00008d40 	call	8d4 <memcpy>
    13d8:	ac2b883a 	add	r21,r21,r16
    13dc:	9c27c83a 	sub	r19,r19,r16
    13e0:	8445883a 	add	r2,r16,r17
    13e4:	1081ffcc 	andi	r2,r2,2047
    13e8:	90800b15 	stw	r2,44(r18)
    13ec:	04ffeb16 	blt	zero,r19,139c <altera_avalon_jtag_uart_read+0x44>
    13f0:	adc01c1e 	bne	r21,r23,1464 <altera_avalon_jtag_uart_read+0x10c>
    13f4:	e090000c 	andi	r2,fp,16384
    13f8:	10000d1e 	bne	r2,zero,1430 <altera_avalon_jtag_uart_read+0xd8>
    13fc:	90800a17 	ldw	r2,40(r18)
    1400:	b080031e 	bne	r22,r2,1410 <altera_avalon_jtag_uart_read+0xb8>
    1404:	90c00917 	ldw	r3,36(r18)
    1408:	90800117 	ldw	r2,4(r18)
    140c:	18bffb36 	bltu	r3,r2,13fc <altera_avalon_jtag_uart_read+0xa4>
    1410:	90800a17 	ldw	r2,40(r18)
    1414:	b0800426 	beq	r22,r2,1428 <altera_avalon_jtag_uart_read+0xd0>
    1418:	04c0030e 	bge	zero,r19,1428 <altera_avalon_jtag_uart_read+0xd0>
    141c:	003fde06 	br	1398 <altera_avalon_jtag_uart_read+0x40>
    1420:	3890000c 	andi	r2,r7,16384
    1424:	1000021e 	bne	r2,zero,1430 <altera_avalon_jtag_uart_read+0xd8>
    1428:	00bffec4 	movi	r2,-5
    142c:	00001806 	br	1490 <altera_avalon_jtag_uart_read+0x138>
    1430:	00bffd44 	movi	r2,-11
    1434:	00001606 	br	1490 <altera_avalon_jtag_uart_read+0x138>
    1438:	91400e04 	addi	r5,r18,56
    143c:	a809883a 	mov	r4,r21
    1440:	894b883a 	add	r5,r17,r5
    1444:	980d883a 	mov	r6,r19
    1448:	00008d40 	call	8d4 <memcpy>
    144c:	aceb883a 	add	r21,r21,r19
    1450:	0027883a 	mov	r19,zero
    1454:	a445883a 	add	r2,r20,r17
    1458:	1081ffcc 	andi	r2,r2,2047
    145c:	90800b15 	stw	r2,44(r18)
    1460:	003fe306 	br	13f0 <altera_avalon_jtag_uart_read+0x98>
    1464:	0009303a 	rdctl	r4,status
    1468:	00bfff84 	movi	r2,-2
    146c:	2084703a 	and	r2,r4,r2
    1470:	1001703a 	wrctl	status,r2
    1474:	90800817 	ldw	r2,32(r18)
    1478:	10800054 	ori	r2,r2,1
    147c:	90800815 	stw	r2,32(r18)
    1480:	90c00017 	ldw	r3,0(r18)
    1484:	18800135 	stwio	r2,4(r3)
    1488:	2001703a 	wrctl	status,r4
    148c:	adc5c83a 	sub	r2,r21,r23
    1490:	dfc00917 	ldw	ra,36(sp)
    1494:	df000817 	ldw	fp,32(sp)
    1498:	ddc00717 	ldw	r23,28(sp)
    149c:	dd800617 	ldw	r22,24(sp)
    14a0:	dd400517 	ldw	r21,20(sp)
    14a4:	dd000417 	ldw	r20,16(sp)
    14a8:	dcc00317 	ldw	r19,12(sp)
    14ac:	dc800217 	ldw	r18,8(sp)
    14b0:	dc400117 	ldw	r17,4(sp)
    14b4:	dc000017 	ldw	r16,0(sp)
    14b8:	dec00a04 	addi	sp,sp,40
    14bc:	f800283a 	ret

000014c0 <altera_avalon_jtag_uart_write>:
    14c0:	defff804 	addi	sp,sp,-32
    14c4:	dfc00715 	stw	ra,28(sp)
    14c8:	dd800615 	stw	r22,24(sp)
    14cc:	dd400515 	stw	r21,20(sp)
    14d0:	dd000415 	stw	r20,16(sp)
    14d4:	dcc00315 	stw	r19,12(sp)
    14d8:	dc800215 	stw	r18,8(sp)
    14dc:	dc400115 	stw	r17,4(sp)
    14e0:	dc000015 	stw	r16,0(sp)
    14e4:	2021883a 	mov	r16,r4
    14e8:	282d883a 	mov	r22,r5
    14ec:	3011883a 	mov	r8,r6
    14f0:	382b883a 	mov	r21,r7
    14f4:	01800616 	blt	zero,r6,1510 <altera_avalon_jtag_uart_write+0x50>
    14f8:	2829883a 	mov	r20,r5
    14fc:	00002106 	br	1584 <altera_avalon_jtag_uart_write+0xc4>
    1500:	a585c83a 	sub	r2,r20,r22
    1504:	00004306 	br	1614 <altera_avalon_jtag_uart_write+0x154>
    1508:	00bffd44 	movi	r2,-11
    150c:	00004106 	br	1614 <altera_avalon_jtag_uart_write+0x154>
    1510:	2829883a 	mov	r20,r5
    1514:	84800c17 	ldw	r18,48(r16)
    1518:	81400d17 	ldw	r5,52(r16)
    151c:	9140032e 	bgeu	r18,r5,152c <altera_avalon_jtag_uart_write+0x6c>
    1520:	2c85c83a 	sub	r2,r5,r18
    1524:	11bfffc4 	addi	r6,r2,-1
    1528:	00000606 	br	1544 <altera_avalon_jtag_uart_write+0x84>
    152c:	28000326 	beq	r5,zero,153c <altera_avalon_jtag_uart_write+0x7c>
    1530:	00820004 	movi	r2,2048
    1534:	148dc83a 	sub	r6,r2,r18
    1538:	00000206 	br	1544 <altera_avalon_jtag_uart_write+0x84>
    153c:	0081ffc4 	movi	r2,2047
    1540:	148dc83a 	sub	r6,r2,r18
    1544:	30002626 	beq	r6,zero,15e0 <altera_avalon_jtag_uart_write+0x120>
    1548:	4027883a 	mov	r19,r8
    154c:	3023883a 	mov	r17,r6
    1550:	4180012e 	bgeu	r8,r6,1558 <altera_avalon_jtag_uart_write+0x98>
    1554:	4023883a 	mov	r17,r8
    1558:	81020e04 	addi	r4,r16,2104
    155c:	2489883a 	add	r4,r4,r18
    1560:	a00b883a 	mov	r5,r20
    1564:	880d883a 	mov	r6,r17
    1568:	00008d40 	call	8d4 <memcpy>
    156c:	a469883a 	add	r20,r20,r17
    1570:	9c51c83a 	sub	r8,r19,r17
    1574:	9445883a 	add	r2,r18,r17
    1578:	1081ffcc 	andi	r2,r2,2047
    157c:	80800c15 	stw	r2,48(r16)
    1580:	023fe416 	blt	zero,r8,1514 <altera_avalon_jtag_uart_write+0x54>
    1584:	0009303a 	rdctl	r4,status
    1588:	00bfff84 	movi	r2,-2
    158c:	2084703a 	and	r2,r4,r2
    1590:	1001703a 	wrctl	status,r2
    1594:	80800817 	ldw	r2,32(r16)
    1598:	10800094 	ori	r2,r2,2
    159c:	80800815 	stw	r2,32(r16)
    15a0:	80c00017 	ldw	r3,0(r16)
    15a4:	18800135 	stwio	r2,4(r3)
    15a8:	2001703a 	wrctl	status,r4
    15ac:	00000706 	br	15cc <altera_avalon_jtag_uart_write+0x10c>
    15b0:	80800d17 	ldw	r2,52(r16)
    15b4:	1140031e 	bne	r2,r5,15c4 <altera_avalon_jtag_uart_write+0x104>
    15b8:	80c00917 	ldw	r3,36(r16)
    15bc:	80800117 	ldw	r2,4(r16)
    15c0:	18bffb36 	bltu	r3,r2,15b0 <altera_avalon_jtag_uart_write+0xf0>
    15c4:	80800d17 	ldw	r2,52(r16)
    15c8:	117fed1e 	bne	r2,r5,1580 <altera_avalon_jtag_uart_write+0xc0>
    15cc:	b53fcc1e 	bne	r22,r20,1500 <altera_avalon_jtag_uart_write+0x40>
    15d0:	a890000c 	andi	r2,r21,16384
    15d4:	103fcc1e 	bne	r2,zero,1508 <altera_avalon_jtag_uart_write+0x48>
    15d8:	00bffec4 	movi	r2,-5
    15dc:	00000d06 	br	1614 <altera_avalon_jtag_uart_write+0x154>
    15e0:	0009303a 	rdctl	r4,status
    15e4:	00bfff84 	movi	r2,-2
    15e8:	2084703a 	and	r2,r4,r2
    15ec:	1001703a 	wrctl	status,r2
    15f0:	80800817 	ldw	r2,32(r16)
    15f4:	10800094 	ori	r2,r2,2
    15f8:	80800815 	stw	r2,32(r16)
    15fc:	80c00017 	ldw	r3,0(r16)
    1600:	18800135 	stwio	r2,4(r3)
    1604:	2001703a 	wrctl	status,r4
    1608:	a890000c 	andi	r2,r21,16384
    160c:	103fe826 	beq	r2,zero,15b0 <altera_avalon_jtag_uart_write+0xf0>
    1610:	003fee06 	br	15cc <altera_avalon_jtag_uart_write+0x10c>
    1614:	dfc00717 	ldw	ra,28(sp)
    1618:	dd800617 	ldw	r22,24(sp)
    161c:	dd400517 	ldw	r21,20(sp)
    1620:	dd000417 	ldw	r20,16(sp)
    1624:	dcc00317 	ldw	r19,12(sp)
    1628:	dc800217 	ldw	r18,8(sp)
    162c:	dc400117 	ldw	r17,4(sp)
    1630:	dc000017 	ldw	r16,0(sp)
    1634:	dec00804 	addi	sp,sp,32
    1638:	f800283a 	ret

0000163c <alt_avalon_timer_sc_init>:
    163c:	deffff04 	addi	sp,sp,-4
    1640:	dfc00015 	stw	ra,0(sp)
    1644:	200b883a 	mov	r5,r4
    1648:	00c000f4 	movhi	r3,3
    164c:	18f6a204 	addi	r3,r3,-9592
    1650:	18800017 	ldw	r2,0(r3)
    1654:	1000011e 	bne	r2,zero,165c <alt_avalon_timer_sc_init+0x20>
    1658:	19c00015 	stw	r7,0(r3)
    165c:	008001c4 	movi	r2,7
    1660:	28800135 	stwio	r2,4(r5)
    1664:	3009883a 	mov	r4,r6
    1668:	01800034 	movhi	r6,0
    166c:	3185a004 	addi	r6,r6,5760
    1670:	00009740 	call	974 <alt_irq_register>
    1674:	dfc00017 	ldw	ra,0(sp)
    1678:	dec00104 	addi	sp,sp,4
    167c:	f800283a 	ret

00001680 <alt_avalon_timer_sc_irq>:
    1680:	defffe04 	addi	sp,sp,-8
    1684:	dfc00115 	stw	ra,4(sp)
    1688:	dc000015 	stw	r16,0(sp)
    168c:	20000035 	stwio	zero,0(r4)
    1690:	20800137 	ldwio	r2,4(r4)
    1694:	0021303a 	rdctl	r16,status
    1698:	00bfff84 	movi	r2,-2
    169c:	8084703a 	and	r2,r16,r2
    16a0:	1001703a 	wrctl	status,r2
    16a4:	00030380 	call	3038 <alt_tick>
    16a8:	8001703a 	wrctl	status,r16
    16ac:	dfc00117 	ldw	ra,4(sp)
    16b0:	dc000017 	ldw	r16,0(sp)
    16b4:	dec00204 	addi	sp,sp,8
    16b8:	f800283a 	ret

000016bc <get_DDRAM_addr>:
    16bc:	2800021e 	bne	r5,zero,16c8 <get_DDRAM_addr+0xc>
    16c0:	2005883a 	mov	r2,r4
    16c4:	00000106 	br	16cc <get_DDRAM_addr+0x10>
    16c8:	20801014 	ori	r2,r4,64
    16cc:	10803fcc 	andi	r2,r2,255
    16d0:	10802014 	ori	r2,r2,128
    16d4:	f800283a 	ret

000016d8 <alt_up_character_lcd_string>:
    16d8:	28c00003 	ldbu	r3,0(r5)
    16dc:	18803fcc 	andi	r2,r3,255
    16e0:	1080201c 	xori	r2,r2,128
    16e4:	10bfe004 	addi	r2,r2,-128
    16e8:	10000d26 	beq	r2,zero,1720 <alt_up_character_lcd_string+0x48>
    16ec:	01800044 	movi	r6,1
    16f0:	20800a17 	ldw	r2,40(r4)
    16f4:	1185883a 	add	r2,r2,r6
    16f8:	18c03fcc 	andi	r3,r3,255
    16fc:	18c0201c 	xori	r3,r3,128
    1700:	18ffe004 	addi	r3,r3,-128
    1704:	10c00025 	stbio	r3,0(r2)
    1708:	298b883a 	add	r5,r5,r6
    170c:	28c00003 	ldbu	r3,0(r5)
    1710:	18803fcc 	andi	r2,r3,255
    1714:	1080201c 	xori	r2,r2,128
    1718:	10bfe004 	addi	r2,r2,-128
    171c:	103ff41e 	bne	r2,zero,16f0 <alt_up_character_lcd_string+0x18>
    1720:	f800283a 	ret

00001724 <alt_up_character_lcd_write>:
    1724:	30000926 	beq	r6,zero,174c <alt_up_character_lcd_write+0x28>
    1728:	000f883a 	mov	r7,zero
    172c:	02000044 	movi	r8,1
    1730:	20800a17 	ldw	r2,40(r4)
    1734:	1205883a 	add	r2,r2,r8
    1738:	3947883a 	add	r3,r7,r5
    173c:	18c00007 	ldb	r3,0(r3)
    1740:	10c00025 	stbio	r3,0(r2)
    1744:	3a0f883a 	add	r7,r7,r8
    1748:	31fff91e 	bne	r6,r7,1730 <alt_up_character_lcd_write+0xc>
    174c:	f800283a 	ret

00001750 <alt_up_character_lcd_write_fd>:
    1750:	deffff04 	addi	sp,sp,-4
    1754:	dfc00015 	stw	ra,0(sp)
    1758:	21000017 	ldw	r4,0(r4)
    175c:	00017240 	call	1724 <alt_up_character_lcd_write>
    1760:	0005883a 	mov	r2,zero
    1764:	dfc00017 	ldw	ra,0(sp)
    1768:	dec00104 	addi	sp,sp,4
    176c:	f800283a 	ret

00001770 <alt_up_character_lcd_init>:
    1770:	20c00a17 	ldw	r3,40(r4)
    1774:	00800044 	movi	r2,1
    1778:	18800025 	stbio	r2,0(r3)
    177c:	f800283a 	ret

00001780 <alt_up_character_lcd_send_cmd>:
    1780:	20800a17 	ldw	r2,40(r4)
    1784:	29403fcc 	andi	r5,r5,255
    1788:	11400025 	stbio	r5,0(r2)
    178c:	f800283a 	ret

00001790 <alt_up_character_lcd_cursor_blink_on>:
    1790:	deffff04 	addi	sp,sp,-4
    1794:	dfc00015 	stw	ra,0(sp)
    1798:	014003c4 	movi	r5,15
    179c:	00017800 	call	1780 <alt_up_character_lcd_send_cmd>
    17a0:	dfc00017 	ldw	ra,0(sp)
    17a4:	dec00104 	addi	sp,sp,4
    17a8:	f800283a 	ret

000017ac <alt_up_character_lcd_cursor_off>:
    17ac:	deffff04 	addi	sp,sp,-4
    17b0:	dfc00015 	stw	ra,0(sp)
    17b4:	01400304 	movi	r5,12
    17b8:	00017800 	call	1780 <alt_up_character_lcd_send_cmd>
    17bc:	dfc00017 	ldw	ra,0(sp)
    17c0:	dec00104 	addi	sp,sp,4
    17c4:	f800283a 	ret

000017c8 <alt_up_character_lcd_erase_pos>:
    17c8:	defffd04 	addi	sp,sp,-12
    17cc:	dfc00215 	stw	ra,8(sp)
    17d0:	dc400115 	stw	r17,4(sp)
    17d4:	dc000015 	stw	r16,0(sp)
    17d8:	2021883a 	mov	r16,r4
    17dc:	008009c4 	movi	r2,39
    17e0:	11400e36 	bltu	r2,r5,181c <alt_up_character_lcd_erase_pos+0x54>
    17e4:	04400044 	movi	r17,1
    17e8:	89800c36 	bltu	r17,r6,181c <alt_up_character_lcd_erase_pos+0x54>
    17ec:	2809883a 	mov	r4,r5
    17f0:	300b883a 	mov	r5,r6
    17f4:	00016bc0 	call	16bc <get_DDRAM_addr>
    17f8:	8009883a 	mov	r4,r16
    17fc:	11403fcc 	andi	r5,r2,255
    1800:	00017800 	call	1780 <alt_up_character_lcd_send_cmd>
    1804:	80800a17 	ldw	r2,40(r16)
    1808:	1445883a 	add	r2,r2,r17
    180c:	00c00084 	movi	r3,2
    1810:	10c00025 	stbio	r3,0(r2)
    1814:	0005883a 	mov	r2,zero
    1818:	00000106 	br	1820 <alt_up_character_lcd_erase_pos+0x58>
    181c:	00bfffc4 	movi	r2,-1
    1820:	dfc00217 	ldw	ra,8(sp)
    1824:	dc400117 	ldw	r17,4(sp)
    1828:	dc000017 	ldw	r16,0(sp)
    182c:	dec00304 	addi	sp,sp,12
    1830:	f800283a 	ret

00001834 <alt_up_character_lcd_shift_display>:
    1834:	defffa04 	addi	sp,sp,-24
    1838:	dfc00515 	stw	ra,20(sp)
    183c:	dd000415 	stw	r20,16(sp)
    1840:	dcc00315 	stw	r19,12(sp)
    1844:	dc800215 	stw	r18,8(sp)
    1848:	dc400115 	stw	r17,4(sp)
    184c:	dc000015 	stw	r16,0(sp)
    1850:	2027883a 	mov	r19,r4
    1854:	28001326 	beq	r5,zero,18a4 <alt_up_character_lcd_shift_display+0x70>
    1858:	0140020e 	bge	zero,r5,1864 <alt_up_character_lcd_shift_display+0x30>
    185c:	05000704 	movi	r20,28
    1860:	00000106 	br	1868 <alt_up_character_lcd_shift_display+0x34>
    1864:	05000604 	movi	r20,24
    1868:	2800010e 	bge	r5,zero,1870 <alt_up_character_lcd_shift_display+0x3c>
    186c:	014bc83a 	sub	r5,zero,r5
    1870:	00bfffc4 	movi	r2,-1
    1874:	28a1883a 	add	r16,r5,r2
    1878:	80c03fcc 	andi	r3,r16,255
    187c:	10803fcc 	andi	r2,r2,255
    1880:	18800826 	beq	r3,r2,18a4 <alt_up_character_lcd_shift_display+0x70>
    1884:	04bfffc4 	movi	r18,-1
    1888:	04403fc4 	movi	r17,255
    188c:	9809883a 	mov	r4,r19
    1890:	a1403fcc 	andi	r5,r20,255
    1894:	00017800 	call	1780 <alt_up_character_lcd_send_cmd>
    1898:	84a1883a 	add	r16,r16,r18
    189c:	80803fcc 	andi	r2,r16,255
    18a0:	147ffa1e 	bne	r2,r17,188c <alt_up_character_lcd_shift_display+0x58>
    18a4:	dfc00517 	ldw	ra,20(sp)
    18a8:	dd000417 	ldw	r20,16(sp)
    18ac:	dcc00317 	ldw	r19,12(sp)
    18b0:	dc800217 	ldw	r18,8(sp)
    18b4:	dc400117 	ldw	r17,4(sp)
    18b8:	dc000017 	ldw	r16,0(sp)
    18bc:	dec00604 	addi	sp,sp,24
    18c0:	f800283a 	ret

000018c4 <alt_up_character_lcd_shift_cursor>:
    18c4:	defffa04 	addi	sp,sp,-24
    18c8:	dfc00515 	stw	ra,20(sp)
    18cc:	dd000415 	stw	r20,16(sp)
    18d0:	dcc00315 	stw	r19,12(sp)
    18d4:	dc800215 	stw	r18,8(sp)
    18d8:	dc400115 	stw	r17,4(sp)
    18dc:	dc000015 	stw	r16,0(sp)
    18e0:	2027883a 	mov	r19,r4
    18e4:	28001326 	beq	r5,zero,1934 <alt_up_character_lcd_shift_cursor+0x70>
    18e8:	0140020e 	bge	zero,r5,18f4 <alt_up_character_lcd_shift_cursor+0x30>
    18ec:	05000504 	movi	r20,20
    18f0:	00000106 	br	18f8 <alt_up_character_lcd_shift_cursor+0x34>
    18f4:	05000404 	movi	r20,16
    18f8:	2800010e 	bge	r5,zero,1900 <alt_up_character_lcd_shift_cursor+0x3c>
    18fc:	014bc83a 	sub	r5,zero,r5
    1900:	00bfffc4 	movi	r2,-1
    1904:	28a1883a 	add	r16,r5,r2
    1908:	80c03fcc 	andi	r3,r16,255
    190c:	10803fcc 	andi	r2,r2,255
    1910:	18800826 	beq	r3,r2,1934 <alt_up_character_lcd_shift_cursor+0x70>
    1914:	04bfffc4 	movi	r18,-1
    1918:	04403fc4 	movi	r17,255
    191c:	9809883a 	mov	r4,r19
    1920:	a1403fcc 	andi	r5,r20,255
    1924:	00017800 	call	1780 <alt_up_character_lcd_send_cmd>
    1928:	84a1883a 	add	r16,r16,r18
    192c:	80803fcc 	andi	r2,r16,255
    1930:	147ffa1e 	bne	r2,r17,191c <alt_up_character_lcd_shift_cursor+0x58>
    1934:	dfc00517 	ldw	ra,20(sp)
    1938:	dd000417 	ldw	r20,16(sp)
    193c:	dcc00317 	ldw	r19,12(sp)
    1940:	dc800217 	ldw	r18,8(sp)
    1944:	dc400117 	ldw	r17,4(sp)
    1948:	dc000017 	ldw	r16,0(sp)
    194c:	dec00604 	addi	sp,sp,24
    1950:	f800283a 	ret

00001954 <alt_up_character_lcd_set_cursor_pos>:
    1954:	defffe04 	addi	sp,sp,-8
    1958:	dfc00115 	stw	ra,4(sp)
    195c:	dc000015 	stw	r16,0(sp)
    1960:	2021883a 	mov	r16,r4
    1964:	008009c4 	movi	r2,39
    1968:	11400a36 	bltu	r2,r5,1994 <alt_up_character_lcd_set_cursor_pos+0x40>
    196c:	00800044 	movi	r2,1
    1970:	11800836 	bltu	r2,r6,1994 <alt_up_character_lcd_set_cursor_pos+0x40>
    1974:	2809883a 	mov	r4,r5
    1978:	300b883a 	mov	r5,r6
    197c:	00016bc0 	call	16bc <get_DDRAM_addr>
    1980:	8009883a 	mov	r4,r16
    1984:	11403fcc 	andi	r5,r2,255
    1988:	00017800 	call	1780 <alt_up_character_lcd_send_cmd>
    198c:	0005883a 	mov	r2,zero
    1990:	00000106 	br	1998 <alt_up_character_lcd_set_cursor_pos+0x44>
    1994:	00bfffc4 	movi	r2,-1
    1998:	dfc00117 	ldw	ra,4(sp)
    199c:	dc000017 	ldw	r16,0(sp)
    19a0:	dec00204 	addi	sp,sp,8
    19a4:	f800283a 	ret

000019a8 <alt_up_character_lcd_open_dev>:
    19a8:	deffff04 	addi	sp,sp,-4
    19ac:	dfc00015 	stw	ra,0(sp)
    19b0:	014000f4 	movhi	r5,3
    19b4:	29769004 	addi	r5,r5,-9664
    19b8:	0002cd80 	call	2cd8 <alt_find_dev>
    19bc:	dfc00017 	ldw	ra,0(sp)
    19c0:	dec00104 	addi	sp,sp,4
    19c4:	f800283a 	ret

000019c8 <read_RI_bit>:
    19c8:	2080400c 	andi	r2,r4,256
    19cc:	1004c03a 	cmpne	r2,r2,zero
    19d0:	f800283a 	ret

000019d4 <read_RE_bit>:
    19d4:	2080004c 	andi	r2,r4,1
    19d8:	f800283a 	ret

000019dc <read_CE_bit>:
    19dc:	2081000c 	andi	r2,r4,1024
    19e0:	1004c03a 	cmpne	r2,r2,zero
    19e4:	f800283a 	ret

000019e8 <read_num_bytes_available>:
    19e8:	2004d43a 	srli	r2,r4,16
    19ec:	f800283a 	ret

000019f0 <read_data_valid>:
    19f0:	20a0000c 	andi	r2,r4,32768
    19f4:	1004c03a 	cmpne	r2,r2,zero
    19f8:	f800283a 	ret

000019fc <read_data_byte>:
    19fc:	20803fcc 	andi	r2,r4,255
    1a00:	f800283a 	ret

00001a04 <alt_up_ps2_open_dev>:
    1a04:	deffff04 	addi	sp,sp,-4
    1a08:	dfc00015 	stw	ra,0(sp)
    1a0c:	014000f4 	movhi	r5,3
    1a10:	29769004 	addi	r5,r5,-9664
    1a14:	0002cd80 	call	2cd8 <alt_find_dev>
    1a18:	dfc00017 	ldw	ra,0(sp)
    1a1c:	dec00104 	addi	sp,sp,4
    1a20:	f800283a 	ret

00001a24 <alt_up_ps2_clear_fifo>:
    1a24:	defffe04 	addi	sp,sp,-8
    1a28:	dfc00115 	stw	ra,4(sp)
    1a2c:	dc000015 	stw	r16,0(sp)
    1a30:	24000a17 	ldw	r16,40(r4)
    1a34:	81000037 	ldwio	r4,0(r16)
    1a38:	00019e80 	call	19e8 <read_num_bytes_available>
    1a3c:	10bfffcc 	andi	r2,r2,65535
    1a40:	103ffc1e 	bne	r2,zero,1a34 <alt_up_ps2_clear_fifo+0x10>
    1a44:	dfc00117 	ldw	ra,4(sp)
    1a48:	dc000017 	ldw	r16,0(sp)
    1a4c:	dec00204 	addi	sp,sp,8
    1a50:	f800283a 	ret

00001a54 <alt_up_ps2_read_data_byte>:
    1a54:	defffd04 	addi	sp,sp,-12
    1a58:	dfc00215 	stw	ra,8(sp)
    1a5c:	dc400115 	stw	r17,4(sp)
    1a60:	dc000015 	stw	r16,0(sp)
    1a64:	2823883a 	mov	r17,r5
    1a68:	20800a17 	ldw	r2,40(r4)
    1a6c:	14000037 	ldwio	r16,0(r2)
    1a70:	8009883a 	mov	r4,r16
    1a74:	00019f00 	call	19f0 <read_data_valid>
    1a78:	10803fcc 	andi	r2,r2,255
    1a7c:	1000021e 	bne	r2,zero,1a88 <alt_up_ps2_read_data_byte+0x34>
    1a80:	00bfffc4 	movi	r2,-1
    1a84:	00000406 	br	1a98 <alt_up_ps2_read_data_byte+0x44>
    1a88:	8009883a 	mov	r4,r16
    1a8c:	00019fc0 	call	19fc <read_data_byte>
    1a90:	88800005 	stb	r2,0(r17)
    1a94:	0005883a 	mov	r2,zero
    1a98:	dfc00217 	ldw	ra,8(sp)
    1a9c:	dc400117 	ldw	r17,4(sp)
    1aa0:	dc000017 	ldw	r16,0(sp)
    1aa4:	dec00304 	addi	sp,sp,12
    1aa8:	f800283a 	ret

00001aac <alt_up_ps2_read_data_byte_timeout>:
    1aac:	defffb04 	addi	sp,sp,-20
    1ab0:	dfc00415 	stw	ra,16(sp)
    1ab4:	dcc00315 	stw	r19,12(sp)
    1ab8:	dc800215 	stw	r18,8(sp)
    1abc:	dc400115 	stw	r17,4(sp)
    1ac0:	dc000015 	stw	r16,0(sp)
    1ac4:	2025883a 	mov	r18,r4
    1ac8:	2827883a 	mov	r19,r5
    1acc:	0023883a 	mov	r17,zero
    1ad0:	90800a17 	ldw	r2,40(r18)
    1ad4:	14000037 	ldwio	r16,0(r2)
    1ad8:	8009883a 	mov	r4,r16
    1adc:	00019f00 	call	19f0 <read_data_valid>
    1ae0:	10803fcc 	andi	r2,r2,255
    1ae4:	10000526 	beq	r2,zero,1afc <alt_up_ps2_read_data_byte_timeout+0x50>
    1ae8:	8009883a 	mov	r4,r16
    1aec:	00019fc0 	call	19fc <read_data_byte>
    1af0:	98800005 	stb	r2,0(r19)
    1af4:	0005883a 	mov	r2,zero
    1af8:	00000506 	br	1b10 <alt_up_ps2_read_data_byte_timeout+0x64>
    1afc:	8c400044 	addi	r17,r17,1
    1b00:	90800c17 	ldw	r2,48(r18)
    1b04:	103ff226 	beq	r2,zero,1ad0 <alt_up_ps2_read_data_byte_timeout+0x24>
    1b08:	147ff12e 	bgeu	r2,r17,1ad0 <alt_up_ps2_read_data_byte_timeout+0x24>
    1b0c:	00bfe304 	movi	r2,-116
    1b10:	dfc00417 	ldw	ra,16(sp)
    1b14:	dcc00317 	ldw	r19,12(sp)
    1b18:	dc800217 	ldw	r18,8(sp)
    1b1c:	dc400117 	ldw	r17,4(sp)
    1b20:	dc000017 	ldw	r16,0(sp)
    1b24:	dec00504 	addi	sp,sp,20
    1b28:	f800283a 	ret

00001b2c <alt_up_ps2_read_fd>:
    1b2c:	deffff04 	addi	sp,sp,-4
    1b30:	dfc00015 	stw	ra,0(sp)
    1b34:	21000017 	ldw	r4,0(r4)
    1b38:	0180010e 	bge	zero,r6,1b40 <alt_up_ps2_read_fd+0x14>
    1b3c:	003fff06 	br	1b3c <alt_up_ps2_read_fd+0x10>
    1b40:	0001aac0 	call	1aac <alt_up_ps2_read_data_byte_timeout>
    1b44:	1005003a 	cmpeq	r2,r2,zero
    1b48:	dfc00017 	ldw	ra,0(sp)
    1b4c:	dec00104 	addi	sp,sp,4
    1b50:	f800283a 	ret

00001b54 <alt_up_ps2_wait_for_ack>:
    1b54:	defffc04 	addi	sp,sp,-16
    1b58:	dfc00315 	stw	ra,12(sp)
    1b5c:	dc400215 	stw	r17,8(sp)
    1b60:	dc000115 	stw	r16,4(sp)
    1b64:	2021883a 	mov	r16,r4
    1b68:	d8000005 	stb	zero,0(sp)
    1b6c:	04403e84 	movi	r17,250
    1b70:	8009883a 	mov	r4,r16
    1b74:	d80b883a 	mov	r5,sp
    1b78:	0001aac0 	call	1aac <alt_up_ps2_read_data_byte_timeout>
    1b7c:	1007883a 	mov	r3,r2
    1b80:	10803fcc 	andi	r2,r2,255
    1b84:	1000041e 	bne	r2,zero,1b98 <alt_up_ps2_wait_for_ack+0x44>
    1b88:	d8800003 	ldbu	r2,0(sp)
    1b8c:	147ff81e 	bne	r2,r17,1b70 <alt_up_ps2_wait_for_ack+0x1c>
    1b90:	0005883a 	mov	r2,zero
    1b94:	00000106 	br	1b9c <alt_up_ps2_wait_for_ack+0x48>
    1b98:	18803fcc 	andi	r2,r3,255
    1b9c:	dfc00317 	ldw	ra,12(sp)
    1ba0:	dc400217 	ldw	r17,8(sp)
    1ba4:	dc000117 	ldw	r16,4(sp)
    1ba8:	dec00404 	addi	sp,sp,16
    1bac:	f800283a 	ret

00001bb0 <alt_up_ps2_write_data_byte>:
    1bb0:	deffff04 	addi	sp,sp,-4
    1bb4:	dfc00015 	stw	ra,0(sp)
    1bb8:	20800a17 	ldw	r2,40(r4)
    1bbc:	29403fcc 	andi	r5,r5,255
    1bc0:	11400025 	stbio	r5,0(r2)
    1bc4:	20800a17 	ldw	r2,40(r4)
    1bc8:	11000137 	ldwio	r4,4(r2)
    1bcc:	00019dc0 	call	19dc <read_CE_bit>
    1bd0:	10803fcc 	andi	r2,r2,255
    1bd4:	10000226 	beq	r2,zero,1be0 <alt_up_ps2_write_data_byte+0x30>
    1bd8:	00bffec4 	movi	r2,-5
    1bdc:	00000106 	br	1be4 <alt_up_ps2_write_data_byte+0x34>
    1be0:	0005883a 	mov	r2,zero
    1be4:	dfc00017 	ldw	ra,0(sp)
    1be8:	dec00104 	addi	sp,sp,4
    1bec:	f800283a 	ret

00001bf0 <alt_up_ps2_write_fd>:
    1bf0:	defffb04 	addi	sp,sp,-20
    1bf4:	dfc00415 	stw	ra,16(sp)
    1bf8:	dcc00315 	stw	r19,12(sp)
    1bfc:	dc800215 	stw	r18,8(sp)
    1c00:	dc400115 	stw	r17,4(sp)
    1c04:	dc000015 	stw	r16,0(sp)
    1c08:	2827883a 	mov	r19,r5
    1c0c:	3025883a 	mov	r18,r6
    1c10:	24400017 	ldw	r17,0(r4)
    1c14:	01800216 	blt	zero,r6,1c20 <alt_up_ps2_write_fd+0x30>
    1c18:	0021883a 	mov	r16,zero
    1c1c:	00000806 	br	1c40 <alt_up_ps2_write_fd+0x50>
    1c20:	0021883a 	mov	r16,zero
    1c24:	9c05883a 	add	r2,r19,r16
    1c28:	8809883a 	mov	r4,r17
    1c2c:	11400003 	ldbu	r5,0(r2)
    1c30:	0001bb00 	call	1bb0 <alt_up_ps2_write_data_byte>
    1c34:	1000021e 	bne	r2,zero,1c40 <alt_up_ps2_write_fd+0x50>
    1c38:	84000044 	addi	r16,r16,1
    1c3c:	943ff91e 	bne	r18,r16,1c24 <alt_up_ps2_write_fd+0x34>
    1c40:	8005883a 	mov	r2,r16
    1c44:	dfc00417 	ldw	ra,16(sp)
    1c48:	dcc00317 	ldw	r19,12(sp)
    1c4c:	dc800217 	ldw	r18,8(sp)
    1c50:	dc400117 	ldw	r17,4(sp)
    1c54:	dc000017 	ldw	r16,0(sp)
    1c58:	dec00504 	addi	sp,sp,20
    1c5c:	f800283a 	ret

00001c60 <alt_up_ps2_write_data_byte_with_ack>:
    1c60:	defffe04 	addi	sp,sp,-8
    1c64:	dfc00115 	stw	ra,4(sp)
    1c68:	dc000015 	stw	r16,0(sp)
    1c6c:	2021883a 	mov	r16,r4
    1c70:	29403fcc 	andi	r5,r5,255
    1c74:	0001bb00 	call	1bb0 <alt_up_ps2_write_data_byte>
    1c78:	1000021e 	bne	r2,zero,1c84 <alt_up_ps2_write_data_byte_with_ack+0x24>
    1c7c:	8009883a 	mov	r4,r16
    1c80:	0001b540 	call	1b54 <alt_up_ps2_wait_for_ack>
    1c84:	dfc00117 	ldw	ra,4(sp)
    1c88:	dc000017 	ldw	r16,0(sp)
    1c8c:	dec00204 	addi	sp,sp,8
    1c90:	f800283a 	ret

00001c94 <alt_up_ps2_init>:
    1c94:	defffd04 	addi	sp,sp,-12
    1c98:	dfc00215 	stw	ra,8(sp)
    1c9c:	dc000115 	stw	r16,4(sp)
    1ca0:	2021883a 	mov	r16,r4
    1ca4:	01403fc4 	movi	r5,255
    1ca8:	0001c600 	call	1c60 <alt_up_ps2_write_data_byte_with_ack>
    1cac:	1000171e 	bne	r2,zero,1d0c <alt_up_ps2_init+0x78>
    1cb0:	8009883a 	mov	r4,r16
    1cb4:	d80b883a 	mov	r5,sp
    1cb8:	0001aac0 	call	1aac <alt_up_ps2_read_data_byte_timeout>
    1cbc:	1000131e 	bne	r2,zero,1d0c <alt_up_ps2_init+0x78>
    1cc0:	d8c00003 	ldbu	r3,0(sp)
    1cc4:	00802a84 	movi	r2,170
    1cc8:	1880101e 	bne	r3,r2,1d0c <alt_up_ps2_init+0x78>
    1ccc:	8009883a 	mov	r4,r16
    1cd0:	d80b883a 	mov	r5,sp
    1cd4:	0001aac0 	call	1aac <alt_up_ps2_read_data_byte_timeout>
    1cd8:	1007883a 	mov	r3,r2
    1cdc:	00bfe304 	movi	r2,-116
    1ce0:	1880031e 	bne	r3,r2,1cf0 <alt_up_ps2_init+0x5c>
    1ce4:	00800044 	movi	r2,1
    1ce8:	80800d15 	stw	r2,52(r16)
    1cec:	00000706 	br	1d0c <alt_up_ps2_init+0x78>
    1cf0:	1800061e 	bne	r3,zero,1d0c <alt_up_ps2_init+0x78>
    1cf4:	d8800003 	ldbu	r2,0(sp)
    1cf8:	1000041e 	bne	r2,zero,1d0c <alt_up_ps2_init+0x78>
    1cfc:	80000d15 	stw	zero,52(r16)
    1d00:	8009883a 	mov	r4,r16
    1d04:	01403d04 	movi	r5,244
    1d08:	0001bb00 	call	1bb0 <alt_up_ps2_write_data_byte>
    1d0c:	dfc00217 	ldw	ra,8(sp)
    1d10:	dc000117 	ldw	r16,4(sp)
    1d14:	dec00304 	addi	sp,sp,12
    1d18:	f800283a 	ret

00001d1c <alt_up_ps2_disable_read_interrupt>:
    1d1c:	20800a17 	ldw	r2,40(r4)
    1d20:	10800104 	addi	r2,r2,4
    1d24:	10c00037 	ldwio	r3,0(r2)
    1d28:	013fff84 	movi	r4,-2
    1d2c:	1906703a 	and	r3,r3,r4
    1d30:	10c00035 	stwio	r3,0(r2)
    1d34:	f800283a 	ret

00001d38 <alt_up_ps2_enable_read_interrupt>:
    1d38:	20c00a17 	ldw	r3,40(r4)
    1d3c:	18c00104 	addi	r3,r3,4
    1d40:	18800037 	ldwio	r2,0(r3)
    1d44:	10800054 	ori	r2,r2,1
    1d48:	18800035 	stwio	r2,0(r3)
    1d4c:	f800283a 	ret

00001d50 <alt_up_rs232_check_parity>:
    1d50:	200495ba 	slli	r2,r4,22
    1d54:	1005d7fa 	srai	r2,r2,31
    1d58:	f800283a 	ret

00001d5c <alt_up_rs232_open_dev>:
    1d5c:	deffff04 	addi	sp,sp,-4
    1d60:	dfc00015 	stw	ra,0(sp)
    1d64:	014000f4 	movhi	r5,3
    1d68:	29769004 	addi	r5,r5,-9664
    1d6c:	0002cd80 	call	2cd8 <alt_find_dev>
    1d70:	dfc00017 	ldw	ra,0(sp)
    1d74:	dec00104 	addi	sp,sp,4
    1d78:	f800283a 	ret

00001d7c <alt_up_rs232_read_data>:
    1d7c:	defffd04 	addi	sp,sp,-12
    1d80:	dfc00215 	stw	ra,8(sp)
    1d84:	dc400115 	stw	r17,4(sp)
    1d88:	dc000015 	stw	r16,0(sp)
    1d8c:	3023883a 	mov	r17,r6
    1d90:	20800a17 	ldw	r2,40(r4)
    1d94:	14000037 	ldwio	r16,0(r2)
    1d98:	2c000005 	stb	r16,0(r5)
    1d9c:	8009883a 	mov	r4,r16
    1da0:	0001d500 	call	1d50 <alt_up_rs232_check_parity>
    1da4:	88800005 	stb	r2,0(r17)
    1da8:	8420000c 	andi	r16,r16,32768
    1dac:	8020d3fa 	srli	r16,r16,15
    1db0:	80bfffc4 	addi	r2,r16,-1
    1db4:	dfc00217 	ldw	ra,8(sp)
    1db8:	dc400117 	ldw	r17,4(sp)
    1dbc:	dc000017 	ldw	r16,0(sp)
    1dc0:	dec00304 	addi	sp,sp,12
    1dc4:	f800283a 	ret

00001dc8 <alt_up_rs232_read_fd>:
    1dc8:	defff904 	addi	sp,sp,-28
    1dcc:	dfc00615 	stw	ra,24(sp)
    1dd0:	dd000515 	stw	r20,20(sp)
    1dd4:	dcc00415 	stw	r19,16(sp)
    1dd8:	dc800315 	stw	r18,12(sp)
    1ddc:	dc400215 	stw	r17,8(sp)
    1de0:	dc000115 	stw	r16,4(sp)
    1de4:	2821883a 	mov	r16,r5
    1de8:	3029883a 	mov	r20,r6
    1dec:	24c00017 	ldw	r19,0(r4)
    1df0:	3000021e 	bne	r6,zero,1dfc <alt_up_rs232_read_fd+0x34>
    1df4:	0025883a 	mov	r18,zero
    1df8:	00000a06 	br	1e24 <alt_up_rs232_read_fd+0x5c>
    1dfc:	0025883a 	mov	r18,zero
    1e00:	04400044 	movi	r17,1
    1e04:	800b883a 	mov	r5,r16
    1e08:	8461883a 	add	r16,r16,r17
    1e0c:	9809883a 	mov	r4,r19
    1e10:	d80d883a 	mov	r6,sp
    1e14:	0001d7c0 	call	1d7c <alt_up_rs232_read_data>
    1e18:	1000021e 	bne	r2,zero,1e24 <alt_up_rs232_read_fd+0x5c>
    1e1c:	9465883a 	add	r18,r18,r17
    1e20:	a4bff81e 	bne	r20,r18,1e04 <alt_up_rs232_read_fd+0x3c>
    1e24:	9005883a 	mov	r2,r18
    1e28:	dfc00617 	ldw	ra,24(sp)
    1e2c:	dd000517 	ldw	r20,20(sp)
    1e30:	dcc00417 	ldw	r19,16(sp)
    1e34:	dc800317 	ldw	r18,12(sp)
    1e38:	dc400217 	ldw	r17,8(sp)
    1e3c:	dc000117 	ldw	r16,4(sp)
    1e40:	dec00704 	addi	sp,sp,28
    1e44:	f800283a 	ret

00001e48 <alt_up_rs232_get_available_space_in_write_FIFO>:
    1e48:	20800a17 	ldw	r2,40(r4)
    1e4c:	10800137 	ldwio	r2,4(r2)
    1e50:	1004d43a 	srli	r2,r2,16
    1e54:	f800283a 	ret

00001e58 <alt_up_rs232_write_data>:
    1e58:	20800a17 	ldw	r2,40(r4)
    1e5c:	10c00037 	ldwio	r3,0(r2)
    1e60:	29403fcc 	andi	r5,r5,255
    1e64:	11400035 	stwio	r5,0(r2)
    1e68:	0005883a 	mov	r2,zero
    1e6c:	f800283a 	ret

00001e70 <alt_up_rs232_write_fd>:
    1e70:	defffb04 	addi	sp,sp,-20
    1e74:	dfc00415 	stw	ra,16(sp)
    1e78:	dcc00315 	stw	r19,12(sp)
    1e7c:	dc800215 	stw	r18,8(sp)
    1e80:	dc400115 	stw	r17,4(sp)
    1e84:	dc000015 	stw	r16,0(sp)
    1e88:	2827883a 	mov	r19,r5
    1e8c:	3025883a 	mov	r18,r6
    1e90:	24400017 	ldw	r17,0(r4)
    1e94:	3000021e 	bne	r6,zero,1ea0 <alt_up_rs232_write_fd+0x30>
    1e98:	0021883a 	mov	r16,zero
    1e9c:	00000806 	br	1ec0 <alt_up_rs232_write_fd+0x50>
    1ea0:	0021883a 	mov	r16,zero
    1ea4:	84c5883a 	add	r2,r16,r19
    1ea8:	8809883a 	mov	r4,r17
    1eac:	11400003 	ldbu	r5,0(r2)
    1eb0:	0001e580 	call	1e58 <alt_up_rs232_write_data>
    1eb4:	1000021e 	bne	r2,zero,1ec0 <alt_up_rs232_write_fd+0x50>
    1eb8:	84000044 	addi	r16,r16,1
    1ebc:	943ff91e 	bne	r18,r16,1ea4 <alt_up_rs232_write_fd+0x34>
    1ec0:	8005883a 	mov	r2,r16
    1ec4:	dfc00417 	ldw	ra,16(sp)
    1ec8:	dcc00317 	ldw	r19,12(sp)
    1ecc:	dc800217 	ldw	r18,8(sp)
    1ed0:	dc400117 	ldw	r17,4(sp)
    1ed4:	dc000017 	ldw	r16,0(sp)
    1ed8:	dec00504 	addi	sp,sp,20
    1edc:	f800283a 	ret

00001ee0 <alt_up_rs232_disable_read_interrupt>:
    1ee0:	20800a17 	ldw	r2,40(r4)
    1ee4:	10800104 	addi	r2,r2,4
    1ee8:	10c00037 	ldwio	r3,0(r2)
    1eec:	013fff84 	movi	r4,-2
    1ef0:	1906703a 	and	r3,r3,r4
    1ef4:	10c00035 	stwio	r3,0(r2)
    1ef8:	f800283a 	ret

00001efc <alt_up_rs232_enable_read_interrupt>:
    1efc:	20c00a17 	ldw	r3,40(r4)
    1f00:	18c00104 	addi	r3,r3,4
    1f04:	18800037 	ldwio	r2,0(r3)
    1f08:	10800054 	ori	r2,r2,1
    1f0c:	18800035 	stwio	r2,0(r3)
    1f10:	f800283a 	ret

00001f14 <alt_up_rs232_get_used_space_in_read_FIFO>:
    1f14:	20800a17 	ldw	r2,40(r4)
    1f18:	108000ab 	ldhuio	r2,2(r2)
    1f1c:	10bfffcc 	andi	r2,r2,65535
    1f20:	f800283a 	ret

00001f24 <alt_up_char_buffer_string>:
    1f24:	20800c17 	ldw	r2,48(r4)
    1f28:	30801c2e 	bgeu	r6,r2,1f9c <alt_up_char_buffer_string+0x78>
    1f2c:	20800d17 	ldw	r2,52(r4)
    1f30:	38801a2e 	bgeu	r7,r2,1f9c <alt_up_char_buffer_string+0x78>
    1f34:	22001017 	ldw	r8,64(r4)
    1f38:	28c00003 	ldbu	r3,0(r5)
    1f3c:	18803fcc 	andi	r2,r3,255
    1f40:	1080201c 	xori	r2,r2,128
    1f44:	10bfe004 	addi	r2,r2,-128
    1f48:	10001626 	beq	r2,zero,1fa4 <alt_up_char_buffer_string+0x80>
    1f4c:	3a04983a 	sll	r2,r7,r8
    1f50:	308f883a 	add	r7,r6,r2
    1f54:	02000044 	movi	r8,1
    1f58:	20800b17 	ldw	r2,44(r4)
    1f5c:	3885883a 	add	r2,r7,r2
    1f60:	18c03fcc 	andi	r3,r3,255
    1f64:	18c0201c 	xori	r3,r3,128
    1f68:	18ffe004 	addi	r3,r3,-128
    1f6c:	10c00025 	stbio	r3,0(r2)
    1f70:	320d883a 	add	r6,r6,r8
    1f74:	20800c17 	ldw	r2,48(r4)
    1f78:	3080082e 	bgeu	r6,r2,1f9c <alt_up_char_buffer_string+0x78>
    1f7c:	2a0b883a 	add	r5,r5,r8
    1f80:	28c00003 	ldbu	r3,0(r5)
    1f84:	18803fcc 	andi	r2,r3,255
    1f88:	1080201c 	xori	r2,r2,128
    1f8c:	10bfe004 	addi	r2,r2,-128
    1f90:	10000426 	beq	r2,zero,1fa4 <alt_up_char_buffer_string+0x80>
    1f94:	3a0f883a 	add	r7,r7,r8
    1f98:	003fef06 	br	1f58 <alt_up_char_buffer_string+0x34>
    1f9c:	00bfffc4 	movi	r2,-1
    1fa0:	f800283a 	ret
    1fa4:	0005883a 	mov	r2,zero
    1fa8:	f800283a 	ret

00001fac <alt_up_char_buffer_draw>:
    1fac:	2011883a 	mov	r8,r4
    1fb0:	20800c17 	ldw	r2,48(r4)
    1fb4:	3080112e 	bgeu	r6,r2,1ffc <alt_up_char_buffer_draw+0x50>
    1fb8:	20800d17 	ldw	r2,52(r4)
    1fbc:	38800f2e 	bgeu	r7,r2,1ffc <alt_up_char_buffer_draw+0x50>
    1fc0:	20c00f17 	ldw	r3,60(r4)
    1fc4:	30c6703a 	and	r3,r6,r3
    1fc8:	20800e17 	ldw	r2,56(r4)
    1fcc:	1886983a 	sll	r3,r3,r2
    1fd0:	20801117 	ldw	r2,68(r4)
    1fd4:	3884703a 	and	r2,r7,r2
    1fd8:	21001017 	ldw	r4,64(r4)
    1fdc:	1104983a 	sll	r2,r2,r4
    1fe0:	1886b03a 	or	r3,r3,r2
    1fe4:	40800b17 	ldw	r2,44(r8)
    1fe8:	1887883a 	add	r3,r3,r2
    1fec:	28803fcc 	andi	r2,r5,255
    1ff0:	18800025 	stbio	r2,0(r3)
    1ff4:	0005883a 	mov	r2,zero
    1ff8:	f800283a 	ret
    1ffc:	00bfffc4 	movi	r2,-1
    2000:	f800283a 	ret

00002004 <alt_up_char_buffer_clear>:
    2004:	20c00a17 	ldw	r3,40(r4)
    2008:	00800044 	movi	r2,1
    200c:	188000a5 	stbio	r2,2(r3)
    2010:	20800a17 	ldw	r2,40(r4)
    2014:	10c00084 	addi	r3,r2,2
    2018:	01000044 	movi	r4,1
    201c:	18800023 	ldbuio	r2,0(r3)
    2020:	1104703a 	and	r2,r2,r4
    2024:	103ffd1e 	bne	r2,zero,201c <alt_up_char_buffer_clear+0x18>
    2028:	f800283a 	ret

0000202c <alt_up_char_buffer_open_dev>:
    202c:	deffff04 	addi	sp,sp,-4
    2030:	dfc00015 	stw	ra,0(sp)
    2034:	014000f4 	movhi	r5,3
    2038:	29769004 	addi	r5,r5,-9664
    203c:	0002cd80 	call	2cd8 <alt_find_dev>
    2040:	dfc00017 	ldw	ra,0(sp)
    2044:	dec00104 	addi	sp,sp,4
    2048:	f800283a 	ret

0000204c <alt_up_char_buffer_init>:
    204c:	defffe04 	addi	sp,sp,-8
    2050:	dfc00115 	stw	ra,4(sp)
    2054:	dc000015 	stw	r16,0(sp)
    2058:	24000217 	ldw	r16,8(r4)
    205c:	80800007 	ldb	r2,0(r16)
    2060:	10000a26 	beq	r2,zero,208c <alt_up_char_buffer_init+0x40>
    2064:	8009883a 	mov	r4,r16
    2068:	01400034 	movhi	r5,0
    206c:	2956cd04 	addi	r5,r5,23348
    2070:	00034e80 	call	34e8 <strcmp>
    2074:	1000021e 	bne	r2,zero,2080 <alt_up_char_buffer_init+0x34>
    2078:	80000005 	stb	zero,0(r16)
    207c:	00000306 	br	208c <alt_up_char_buffer_init+0x40>
    2080:	84000044 	addi	r16,r16,1
    2084:	80800007 	ldb	r2,0(r16)
    2088:	103ff61e 	bne	r2,zero,2064 <alt_up_char_buffer_init+0x18>
    208c:	dfc00117 	ldw	ra,4(sp)
    2090:	dc000017 	ldw	r16,0(sp)
    2094:	dec00204 	addi	sp,sp,8
    2098:	f800283a 	ret

0000209c <helper_plot_pixel>:
    209c:	da000017 	ldw	r8,0(sp)
    20a0:	d8c00117 	ldw	r3,4(sp)
    20a4:	1800051e 	bne	r3,zero,20bc <helper_plot_pixel+0x20>
    20a8:	29c5383a 	mul	r2,r5,r7
    20ac:	3085883a 	add	r2,r6,r2
    20b0:	1105883a 	add	r2,r2,r4
    20b4:	12000025 	stbio	r8,0(r2)
    20b8:	f800283a 	ret
    20bc:	00800044 	movi	r2,1
    20c0:	1880061e 	bne	r3,r2,20dc <helper_plot_pixel+0x40>
    20c4:	29c5383a 	mul	r2,r5,r7
    20c8:	3085883a 	add	r2,r6,r2
    20cc:	1085883a 	add	r2,r2,r2
    20d0:	1105883a 	add	r2,r2,r4
    20d4:	1200002d 	sthio	r8,0(r2)
    20d8:	f800283a 	ret
    20dc:	29c5383a 	mul	r2,r5,r7
    20e0:	1185883a 	add	r2,r2,r6
    20e4:	1085883a 	add	r2,r2,r2
    20e8:	1085883a 	add	r2,r2,r2
    20ec:	1105883a 	add	r2,r2,r4
    20f0:	12000035 	stwio	r8,0(r2)
    20f4:	f800283a 	ret

000020f8 <alt_up_pixel_buffer_dma_draw_line>:
    20f8:	defff304 	addi	sp,sp,-52
    20fc:	dfc00c15 	stw	ra,48(sp)
    2100:	df000b15 	stw	fp,44(sp)
    2104:	ddc00a15 	stw	r23,40(sp)
    2108:	dd800915 	stw	r22,36(sp)
    210c:	dd400815 	stw	r21,32(sp)
    2110:	dd000715 	stw	r20,28(sp)
    2114:	dcc00615 	stw	r19,24(sp)
    2118:	dc800515 	stw	r18,20(sp)
    211c:	dc400415 	stw	r17,16(sp)
    2120:	dc000315 	stw	r16,12(sp)
    2124:	3011883a 	mov	r8,r6
    2128:	da400d17 	ldw	r9,52(sp)
    212c:	4987c83a 	sub	r3,r9,r6
    2130:	1800010e 	bge	r3,zero,2138 <alt_up_pixel_buffer_dma_draw_line+0x40>
    2134:	00c7c83a 	sub	r3,zero,r3
    2138:	3945c83a 	sub	r2,r7,r5
    213c:	1000010e 	bge	r2,zero,2144 <alt_up_pixel_buffer_dma_draw_line+0x4c>
    2140:	0085c83a 	sub	r2,zero,r2
    2144:	10c4803a 	cmplt	r2,r2,r3
    2148:	1015883a 	mov	r10,r2
    214c:	20c00e17 	ldw	r3,56(r4)
    2150:	00800044 	movi	r2,1
    2154:	1880021e 	bne	r3,r2,2160 <alt_up_pixel_buffer_dma_draw_line+0x68>
    2158:	d8000215 	stw	zero,8(sp)
    215c:	00000306 	br	216c <alt_up_pixel_buffer_dma_draw_line+0x74>
    2160:	18c00098 	cmpnei	r3,r3,2
    2164:	18c00044 	addi	r3,r3,1
    2168:	d8c00215 	stw	r3,8(sp)
    216c:	20800d17 	ldw	r2,52(r4)
    2170:	1000061e 	bne	r2,zero,218c <alt_up_pixel_buffer_dma_draw_line+0x94>
    2174:	20801317 	ldw	r2,76(r4)
    2178:	d8c00217 	ldw	r3,8(sp)
    217c:	10c5c83a 	sub	r2,r2,r3
    2180:	00c00044 	movi	r3,1
    2184:	18ae983a 	sll	r23,r3,r2
    2188:	00000106 	br	2190 <alt_up_pixel_buffer_dma_draw_line+0x98>
    218c:	25c00f17 	ldw	r23,60(r4)
    2190:	d8c00f17 	ldw	r3,60(sp)
    2194:	00800044 	movi	r2,1
    2198:	1880021e 	bne	r3,r2,21a4 <alt_up_pixel_buffer_dma_draw_line+0xac>
    219c:	25800c17 	ldw	r22,48(r4)
    21a0:	00000106 	br	21a8 <alt_up_pixel_buffer_dma_draw_line+0xb0>
    21a4:	25800b17 	ldw	r22,44(r4)
    21a8:	50000326 	beq	r10,zero,21b8 <alt_up_pixel_buffer_dma_draw_line+0xc0>
    21ac:	400d883a 	mov	r6,r8
    21b0:	4827883a 	mov	r19,r9
    21b4:	00000406 	br	21c8 <alt_up_pixel_buffer_dma_draw_line+0xd0>
    21b8:	280d883a 	mov	r6,r5
    21bc:	400b883a 	mov	r5,r8
    21c0:	3827883a 	mov	r19,r7
    21c4:	480f883a 	mov	r7,r9
    21c8:	9980060e 	bge	r19,r6,21e4 <alt_up_pixel_buffer_dma_draw_line+0xec>
    21cc:	9805883a 	mov	r2,r19
    21d0:	3027883a 	mov	r19,r6
    21d4:	100d883a 	mov	r6,r2
    21d8:	3805883a 	mov	r2,r7
    21dc:	280f883a 	mov	r7,r5
    21e0:	100b883a 	mov	r5,r2
    21e4:	99abc83a 	sub	r21,r19,r6
    21e8:	3969c83a 	sub	r20,r7,r5
    21ec:	a000010e 	bge	r20,zero,21f4 <alt_up_pixel_buffer_dma_draw_line+0xfc>
    21f0:	0529c83a 	sub	r20,zero,r20
    21f4:	a804d7fa 	srli	r2,r21,31
    21f8:	1545883a 	add	r2,r2,r21
    21fc:	1005d07a 	srai	r2,r2,1
    2200:	00a3c83a 	sub	r17,zero,r2
    2204:	29c0020e 	bge	r5,r7,2210 <alt_up_pixel_buffer_dma_draw_line+0x118>
    2208:	07000044 	movi	fp,1
    220c:	00000106 	br	2214 <alt_up_pixel_buffer_dma_draw_line+0x11c>
    2210:	073fffc4 	movi	fp,-1
    2214:	50000226 	beq	r10,zero,2220 <alt_up_pixel_buffer_dma_draw_line+0x128>
    2218:	9980030e 	bge	r19,r6,2228 <alt_up_pixel_buffer_dma_draw_line+0x130>
    221c:	00002506 	br	22b4 <alt_up_pixel_buffer_dma_draw_line+0x1bc>
    2220:	9980130e 	bge	r19,r6,2270 <alt_up_pixel_buffer_dma_draw_line+0x178>
    2224:	00002306 	br	22b4 <alt_up_pixel_buffer_dma_draw_line+0x1bc>
    2228:	3021883a 	mov	r16,r6
    222c:	2825883a 	mov	r18,r5
    2230:	d8800e17 	ldw	r2,56(sp)
    2234:	d8800015 	stw	r2,0(sp)
    2238:	d8c00217 	ldw	r3,8(sp)
    223c:	d8c00115 	stw	r3,4(sp)
    2240:	b009883a 	mov	r4,r22
    2244:	b80b883a 	mov	r5,r23
    2248:	900d883a 	mov	r6,r18
    224c:	800f883a 	mov	r7,r16
    2250:	000209c0 	call	209c <helper_plot_pixel>
    2254:	8d23883a 	add	r17,r17,r20
    2258:	0440020e 	bge	zero,r17,2264 <alt_up_pixel_buffer_dma_draw_line+0x16c>
    225c:	9725883a 	add	r18,r18,fp
    2260:	8d63c83a 	sub	r17,r17,r21
    2264:	84000044 	addi	r16,r16,1
    2268:	9c001216 	blt	r19,r16,22b4 <alt_up_pixel_buffer_dma_draw_line+0x1bc>
    226c:	003ff006 	br	2230 <alt_up_pixel_buffer_dma_draw_line+0x138>
    2270:	3021883a 	mov	r16,r6
    2274:	2825883a 	mov	r18,r5
    2278:	d8800e17 	ldw	r2,56(sp)
    227c:	d8800015 	stw	r2,0(sp)
    2280:	d8c00217 	ldw	r3,8(sp)
    2284:	d8c00115 	stw	r3,4(sp)
    2288:	b009883a 	mov	r4,r22
    228c:	b80b883a 	mov	r5,r23
    2290:	800d883a 	mov	r6,r16
    2294:	900f883a 	mov	r7,r18
    2298:	000209c0 	call	209c <helper_plot_pixel>
    229c:	8d23883a 	add	r17,r17,r20
    22a0:	0440020e 	bge	zero,r17,22ac <alt_up_pixel_buffer_dma_draw_line+0x1b4>
    22a4:	9725883a 	add	r18,r18,fp
    22a8:	8d63c83a 	sub	r17,r17,r21
    22ac:	84000044 	addi	r16,r16,1
    22b0:	9c3ff10e 	bge	r19,r16,2278 <alt_up_pixel_buffer_dma_draw_line+0x180>
    22b4:	dfc00c17 	ldw	ra,48(sp)
    22b8:	df000b17 	ldw	fp,44(sp)
    22bc:	ddc00a17 	ldw	r23,40(sp)
    22c0:	dd800917 	ldw	r22,36(sp)
    22c4:	dd400817 	ldw	r21,32(sp)
    22c8:	dd000717 	ldw	r20,28(sp)
    22cc:	dcc00617 	ldw	r19,24(sp)
    22d0:	dc800517 	ldw	r18,20(sp)
    22d4:	dc400417 	ldw	r17,16(sp)
    22d8:	dc000317 	ldw	r16,12(sp)
    22dc:	dec00d04 	addi	sp,sp,52
    22e0:	f800283a 	ret

000022e4 <alt_up_pixel_buffer_dma_draw_vline>:
    22e4:	22400f17 	ldw	r9,60(r4)
    22e8:	20801017 	ldw	r2,64(r4)
    22ec:	3811883a 	mov	r8,r7
    22f0:	3980022e 	bgeu	r7,r6,22fc <alt_up_pixel_buffer_dma_draw_vline+0x18>
    22f4:	3011883a 	mov	r8,r6
    22f8:	380d883a 	mov	r6,r7
    22fc:	2a405d2e 	bgeu	r5,r9,2474 <alt_up_pixel_buffer_dma_draw_vline+0x190>
    2300:	30805c2e 	bgeu	r6,r2,2474 <alt_up_pixel_buffer_dma_draw_vline+0x190>
    2304:	40800136 	bltu	r8,r2,230c <alt_up_pixel_buffer_dma_draw_vline+0x28>
    2308:	123fffc4 	addi	r8,r2,-1
    230c:	d8c00117 	ldw	r3,4(sp)
    2310:	00800044 	movi	r2,1
    2314:	1880021e 	bne	r3,r2,2320 <alt_up_pixel_buffer_dma_draw_vline+0x3c>
    2318:	20c00c17 	ldw	r3,48(r4)
    231c:	00000106 	br	2324 <alt_up_pixel_buffer_dma_draw_vline+0x40>
    2320:	20c00b17 	ldw	r3,44(r4)
    2324:	d9c00017 	ldw	r7,0(sp)
    2328:	20800d17 	ldw	r2,52(r4)
    232c:	1000281e 	bne	r2,zero,23d0 <alt_up_pixel_buffer_dma_draw_vline+0xec>
    2330:	22801317 	ldw	r10,76(r4)
    2334:	3284983a 	sll	r2,r6,r10
    2338:	1887883a 	add	r3,r3,r2
    233c:	21000e17 	ldw	r4,56(r4)
    2340:	00800044 	movi	r2,1
    2344:	2080091e 	bne	r4,r2,236c <alt_up_pixel_buffer_dma_draw_vline+0x88>
    2348:	41804a36 	bltu	r8,r6,2474 <alt_up_pixel_buffer_dma_draw_vline+0x190>
    234c:	1013883a 	mov	r9,r2
    2350:	1288983a 	sll	r4,r2,r10
    2354:	1945883a 	add	r2,r3,r5
    2358:	11c00025 	stbio	r7,0(r2)
    235c:	1907883a 	add	r3,r3,r4
    2360:	324d883a 	add	r6,r6,r9
    2364:	41804336 	bltu	r8,r6,2474 <alt_up_pixel_buffer_dma_draw_vline+0x190>
    2368:	003ffa06 	br	2354 <alt_up_pixel_buffer_dma_draw_vline+0x70>
    236c:	00800084 	movi	r2,2
    2370:	2080021e 	bne	r4,r2,237c <alt_up_pixel_buffer_dma_draw_vline+0x98>
    2374:	4180032e 	bgeu	r8,r6,2384 <alt_up_pixel_buffer_dma_draw_vline+0xa0>
    2378:	f800283a 	ret
    237c:	41800a2e 	bgeu	r8,r6,23a8 <alt_up_pixel_buffer_dma_draw_vline+0xc4>
    2380:	f800283a 	ret
    2384:	294b883a 	add	r5,r5,r5
    2388:	02400044 	movi	r9,1
    238c:	4a88983a 	sll	r4,r9,r10
    2390:	28c5883a 	add	r2,r5,r3
    2394:	11c0002d 	sthio	r7,0(r2)
    2398:	1907883a 	add	r3,r3,r4
    239c:	324d883a 	add	r6,r6,r9
    23a0:	41803436 	bltu	r8,r6,2474 <alt_up_pixel_buffer_dma_draw_vline+0x190>
    23a4:	003ffa06 	br	2390 <alt_up_pixel_buffer_dma_draw_vline+0xac>
    23a8:	2945883a 	add	r2,r5,r5
    23ac:	108b883a 	add	r5,r2,r2
    23b0:	02400044 	movi	r9,1
    23b4:	4a88983a 	sll	r4,r9,r10
    23b8:	28c5883a 	add	r2,r5,r3
    23bc:	11c00035 	stwio	r7,0(r2)
    23c0:	1907883a 	add	r3,r3,r4
    23c4:	324d883a 	add	r6,r6,r9
    23c8:	41802a36 	bltu	r8,r6,2474 <alt_up_pixel_buffer_dma_draw_vline+0x190>
    23cc:	003ffa06 	br	23b8 <alt_up_pixel_buffer_dma_draw_vline+0xd4>
    23d0:	21000e17 	ldw	r4,56(r4)
    23d4:	00800044 	movi	r2,1
    23d8:	20800b1e 	bne	r4,r2,2408 <alt_up_pixel_buffer_dma_draw_vline+0x124>
    23dc:	41802536 	bltu	r8,r6,2474 <alt_up_pixel_buffer_dma_draw_vline+0x190>
    23e0:	4809883a 	mov	r4,r9
    23e4:	3245383a 	mul	r2,r6,r9
    23e8:	1885883a 	add	r2,r3,r2
    23ec:	1145883a 	add	r2,r2,r5
    23f0:	00c00044 	movi	r3,1
    23f4:	11c00025 	stbio	r7,0(r2)
    23f8:	30cd883a 	add	r6,r6,r3
    23fc:	1105883a 	add	r2,r2,r4
    2400:	41801c36 	bltu	r8,r6,2474 <alt_up_pixel_buffer_dma_draw_vline+0x190>
    2404:	003ffb06 	br	23f4 <alt_up_pixel_buffer_dma_draw_vline+0x110>
    2408:	00800084 	movi	r2,2
    240c:	20800c1e 	bne	r4,r2,2440 <alt_up_pixel_buffer_dma_draw_vline+0x15c>
    2410:	41801836 	bltu	r8,r6,2474 <alt_up_pixel_buffer_dma_draw_vline+0x190>
    2414:	4a49883a 	add	r4,r9,r9
    2418:	3105383a 	mul	r2,r6,r4
    241c:	1887883a 	add	r3,r3,r2
    2420:	294b883a 	add	r5,r5,r5
    2424:	02400044 	movi	r9,1
    2428:	28c5883a 	add	r2,r5,r3
    242c:	11c0002d 	sthio	r7,0(r2)
    2430:	1907883a 	add	r3,r3,r4
    2434:	324d883a 	add	r6,r6,r9
    2438:	41800e36 	bltu	r8,r6,2474 <alt_up_pixel_buffer_dma_draw_vline+0x190>
    243c:	003ffa06 	br	2428 <alt_up_pixel_buffer_dma_draw_vline+0x144>
    2440:	41800c36 	bltu	r8,r6,2474 <alt_up_pixel_buffer_dma_draw_vline+0x190>
    2444:	4a45883a 	add	r2,r9,r9
    2448:	1089883a 	add	r4,r2,r2
    244c:	3105383a 	mul	r2,r6,r4
    2450:	1887883a 	add	r3,r3,r2
    2454:	2945883a 	add	r2,r5,r5
    2458:	108b883a 	add	r5,r2,r2
    245c:	02400044 	movi	r9,1
    2460:	28c5883a 	add	r2,r5,r3
    2464:	11c00035 	stwio	r7,0(r2)
    2468:	1907883a 	add	r3,r3,r4
    246c:	324d883a 	add	r6,r6,r9
    2470:	41bffb2e 	bgeu	r8,r6,2460 <alt_up_pixel_buffer_dma_draw_vline+0x17c>
    2474:	f800283a 	ret

00002478 <alt_up_pixel_buffer_dma_draw_hline>:
    2478:	22000f17 	ldw	r8,60(r4)
    247c:	20801017 	ldw	r2,64(r4)
    2480:	3013883a 	mov	r9,r6
    2484:	3140022e 	bgeu	r6,r5,2490 <alt_up_pixel_buffer_dma_draw_hline+0x18>
    2488:	2813883a 	mov	r9,r5
    248c:	300b883a 	mov	r5,r6
    2490:	2a00552e 	bgeu	r5,r8,25e8 <alt_up_pixel_buffer_dma_draw_hline+0x170>
    2494:	3880542e 	bgeu	r7,r2,25e8 <alt_up_pixel_buffer_dma_draw_hline+0x170>
    2498:	4a000136 	bltu	r9,r8,24a0 <alt_up_pixel_buffer_dma_draw_hline+0x28>
    249c:	427fffc4 	addi	r9,r8,-1
    24a0:	d8c00117 	ldw	r3,4(sp)
    24a4:	00800044 	movi	r2,1
    24a8:	1880021e 	bne	r3,r2,24b4 <alt_up_pixel_buffer_dma_draw_hline+0x3c>
    24ac:	21800c17 	ldw	r6,48(r4)
    24b0:	00000106 	br	24b8 <alt_up_pixel_buffer_dma_draw_hline+0x40>
    24b4:	21800b17 	ldw	r6,44(r4)
    24b8:	d8c00017 	ldw	r3,0(sp)
    24bc:	20800d17 	ldw	r2,52(r4)
    24c0:	1000231e 	bne	r2,zero,2550 <alt_up_pixel_buffer_dma_draw_hline+0xd8>
    24c4:	20801317 	ldw	r2,76(r4)
    24c8:	3884983a 	sll	r2,r7,r2
    24cc:	308f883a 	add	r7,r6,r2
    24d0:	21000e17 	ldw	r4,56(r4)
    24d4:	00800044 	movi	r2,1
    24d8:	2080081e 	bne	r4,r2,24fc <alt_up_pixel_buffer_dma_draw_hline+0x84>
    24dc:	49404236 	bltu	r9,r5,25e8 <alt_up_pixel_buffer_dma_draw_hline+0x170>
    24e0:	3945883a 	add	r2,r7,r5
    24e4:	01000044 	movi	r4,1
    24e8:	10c00025 	stbio	r3,0(r2)
    24ec:	290b883a 	add	r5,r5,r4
    24f0:	1105883a 	add	r2,r2,r4
    24f4:	49403c36 	bltu	r9,r5,25e8 <alt_up_pixel_buffer_dma_draw_hline+0x170>
    24f8:	003ffb06 	br	24e8 <alt_up_pixel_buffer_dma_draw_hline+0x70>
    24fc:	00800084 	movi	r2,2
    2500:	2080021e 	bne	r4,r2,250c <alt_up_pixel_buffer_dma_draw_hline+0x94>
    2504:	4940032e 	bgeu	r9,r5,2514 <alt_up_pixel_buffer_dma_draw_hline+0x9c>
    2508:	f800283a 	ret
    250c:	4940082e 	bgeu	r9,r5,2530 <alt_up_pixel_buffer_dma_draw_hline+0xb8>
    2510:	f800283a 	ret
    2514:	01000044 	movi	r4,1
    2518:	2945883a 	add	r2,r5,r5
    251c:	11c5883a 	add	r2,r2,r7
    2520:	10c0002d 	sthio	r3,0(r2)
    2524:	290b883a 	add	r5,r5,r4
    2528:	49402f36 	bltu	r9,r5,25e8 <alt_up_pixel_buffer_dma_draw_hline+0x170>
    252c:	003ffa06 	br	2518 <alt_up_pixel_buffer_dma_draw_hline+0xa0>
    2530:	01000044 	movi	r4,1
    2534:	2945883a 	add	r2,r5,r5
    2538:	1085883a 	add	r2,r2,r2
    253c:	11c5883a 	add	r2,r2,r7
    2540:	10c00035 	stwio	r3,0(r2)
    2544:	290b883a 	add	r5,r5,r4
    2548:	49402736 	bltu	r9,r5,25e8 <alt_up_pixel_buffer_dma_draw_hline+0x170>
    254c:	003ff906 	br	2534 <alt_up_pixel_buffer_dma_draw_hline+0xbc>
    2550:	21000e17 	ldw	r4,56(r4)
    2554:	00800044 	movi	r2,1
    2558:	20800a1e 	bne	r4,r2,2584 <alt_up_pixel_buffer_dma_draw_hline+0x10c>
    255c:	41c5383a 	mul	r2,r8,r7
    2560:	3085883a 	add	r2,r6,r2
    2564:	49402036 	bltu	r9,r5,25e8 <alt_up_pixel_buffer_dma_draw_hline+0x170>
    2568:	1145883a 	add	r2,r2,r5
    256c:	01000044 	movi	r4,1
    2570:	10c00025 	stbio	r3,0(r2)
    2574:	290b883a 	add	r5,r5,r4
    2578:	1105883a 	add	r2,r2,r4
    257c:	49401a36 	bltu	r9,r5,25e8 <alt_up_pixel_buffer_dma_draw_hline+0x170>
    2580:	003ffb06 	br	2570 <alt_up_pixel_buffer_dma_draw_hline+0xf8>
    2584:	00800084 	movi	r2,2
    2588:	20800b1e 	bne	r4,r2,25b8 <alt_up_pixel_buffer_dma_draw_hline+0x140>
    258c:	4205883a 	add	r2,r8,r8
    2590:	3885383a 	mul	r2,r7,r2
    2594:	308f883a 	add	r7,r6,r2
    2598:	49401336 	bltu	r9,r5,25e8 <alt_up_pixel_buffer_dma_draw_hline+0x170>
    259c:	01000044 	movi	r4,1
    25a0:	2945883a 	add	r2,r5,r5
    25a4:	11c5883a 	add	r2,r2,r7
    25a8:	10c0002d 	sthio	r3,0(r2)
    25ac:	290b883a 	add	r5,r5,r4
    25b0:	49400d36 	bltu	r9,r5,25e8 <alt_up_pixel_buffer_dma_draw_hline+0x170>
    25b4:	003ffa06 	br	25a0 <alt_up_pixel_buffer_dma_draw_hline+0x128>
    25b8:	4205883a 	add	r2,r8,r8
    25bc:	1085883a 	add	r2,r2,r2
    25c0:	3885383a 	mul	r2,r7,r2
    25c4:	308f883a 	add	r7,r6,r2
    25c8:	49400736 	bltu	r9,r5,25e8 <alt_up_pixel_buffer_dma_draw_hline+0x170>
    25cc:	01000044 	movi	r4,1
    25d0:	2945883a 	add	r2,r5,r5
    25d4:	1085883a 	add	r2,r2,r2
    25d8:	11c5883a 	add	r2,r2,r7
    25dc:	10c00035 	stwio	r3,0(r2)
    25e0:	290b883a 	add	r5,r5,r4
    25e4:	497ffa2e 	bgeu	r9,r5,25d0 <alt_up_pixel_buffer_dma_draw_hline+0x158>
    25e8:	f800283a 	ret

000025ec <alt_up_pixel_buffer_dma_draw_rectangle>:
    25ec:	defff604 	addi	sp,sp,-40
    25f0:	dfc00915 	stw	ra,36(sp)
    25f4:	dd800815 	stw	r22,32(sp)
    25f8:	dd400715 	stw	r21,28(sp)
    25fc:	dd000615 	stw	r20,24(sp)
    2600:	dcc00515 	stw	r19,20(sp)
    2604:	dc800415 	stw	r18,16(sp)
    2608:	dc400315 	stw	r17,12(sp)
    260c:	dc000215 	stw	r16,8(sp)
    2610:	2029883a 	mov	r20,r4
    2614:	282d883a 	mov	r22,r5
    2618:	302b883a 	mov	r21,r6
    261c:	3825883a 	mov	r18,r7
    2620:	dcc00a17 	ldw	r19,40(sp)
    2624:	dc000b17 	ldw	r16,44(sp)
    2628:	dc400c17 	ldw	r17,48(sp)
    262c:	dc000015 	stw	r16,0(sp)
    2630:	dc400115 	stw	r17,4(sp)
    2634:	380d883a 	mov	r6,r7
    2638:	a80f883a 	mov	r7,r21
    263c:	00024780 	call	2478 <alt_up_pixel_buffer_dma_draw_hline>
    2640:	dc000015 	stw	r16,0(sp)
    2644:	dc400115 	stw	r17,4(sp)
    2648:	a009883a 	mov	r4,r20
    264c:	b00b883a 	mov	r5,r22
    2650:	900d883a 	mov	r6,r18
    2654:	980f883a 	mov	r7,r19
    2658:	00024780 	call	2478 <alt_up_pixel_buffer_dma_draw_hline>
    265c:	dc000015 	stw	r16,0(sp)
    2660:	dc400115 	stw	r17,4(sp)
    2664:	a009883a 	mov	r4,r20
    2668:	b00b883a 	mov	r5,r22
    266c:	a80d883a 	mov	r6,r21
    2670:	980f883a 	mov	r7,r19
    2674:	00022e40 	call	22e4 <alt_up_pixel_buffer_dma_draw_vline>
    2678:	dc000015 	stw	r16,0(sp)
    267c:	dc400115 	stw	r17,4(sp)
    2680:	a009883a 	mov	r4,r20
    2684:	900b883a 	mov	r5,r18
    2688:	a80d883a 	mov	r6,r21
    268c:	980f883a 	mov	r7,r19
    2690:	00022e40 	call	22e4 <alt_up_pixel_buffer_dma_draw_vline>
    2694:	dfc00917 	ldw	ra,36(sp)
    2698:	dd800817 	ldw	r22,32(sp)
    269c:	dd400717 	ldw	r21,28(sp)
    26a0:	dd000617 	ldw	r20,24(sp)
    26a4:	dcc00517 	ldw	r19,20(sp)
    26a8:	dc800417 	ldw	r18,16(sp)
    26ac:	dc400317 	ldw	r17,12(sp)
    26b0:	dc000217 	ldw	r16,8(sp)
    26b4:	dec00a04 	addi	sp,sp,40
    26b8:	f800283a 	ret

000026bc <alt_up_pixel_buffer_dma_draw_box>:
    26bc:	22800f17 	ldw	r10,60(r4)
    26c0:	20c01017 	ldw	r3,64(r4)
    26c4:	3811883a 	mov	r8,r7
    26c8:	dac00017 	ldw	r11,0(sp)
    26cc:	3940022e 	bgeu	r7,r5,26d8 <alt_up_pixel_buffer_dma_draw_box+0x1c>
    26d0:	2811883a 	mov	r8,r5
    26d4:	380b883a 	mov	r5,r7
    26d8:	5980032e 	bgeu	r11,r6,26e8 <alt_up_pixel_buffer_dma_draw_box+0x2c>
    26dc:	5805883a 	mov	r2,r11
    26e0:	3017883a 	mov	r11,r6
    26e4:	100d883a 	mov	r6,r2
    26e8:	2a80842e 	bgeu	r5,r10,28fc <alt_up_pixel_buffer_dma_draw_box+0x240>
    26ec:	30c0832e 	bgeu	r6,r3,28fc <alt_up_pixel_buffer_dma_draw_box+0x240>
    26f0:	42800136 	bltu	r8,r10,26f8 <alt_up_pixel_buffer_dma_draw_box+0x3c>
    26f4:	523fffc4 	addi	r8,r10,-1
    26f8:	58c00136 	bltu	r11,r3,2700 <alt_up_pixel_buffer_dma_draw_box+0x44>
    26fc:	1affffc4 	addi	r11,r3,-1
    2700:	d8c00217 	ldw	r3,8(sp)
    2704:	00800044 	movi	r2,1
    2708:	1880021e 	bne	r3,r2,2714 <alt_up_pixel_buffer_dma_draw_box+0x58>
    270c:	20c00c17 	ldw	r3,48(r4)
    2710:	00000106 	br	2718 <alt_up_pixel_buffer_dma_draw_box+0x5c>
    2714:	20c00b17 	ldw	r3,44(r4)
    2718:	da400117 	ldw	r9,4(sp)
    271c:	20800d17 	ldw	r2,52(r4)
    2720:	1000391e 	bne	r2,zero,2808 <alt_up_pixel_buffer_dma_draw_box+0x14c>
    2724:	22801317 	ldw	r10,76(r4)
    2728:	3284983a 	sll	r2,r6,r10
    272c:	188f883a 	add	r7,r3,r2
    2730:	21000e17 	ldw	r4,56(r4)
    2734:	00800044 	movi	r2,1
    2738:	2080101e 	bne	r4,r2,277c <alt_up_pixel_buffer_dma_draw_box+0xc0>
    273c:	59806f36 	bltu	r11,r6,28fc <alt_up_pixel_buffer_dma_draw_box+0x240>
    2740:	00000a06 	br	276c <alt_up_pixel_buffer_dma_draw_box+0xb0>
    2744:	22400025 	stbio	r9,0(r4)
    2748:	00800044 	movi	r2,1
    274c:	1887883a 	add	r3,r3,r2
    2750:	2089883a 	add	r4,r4,r2
    2754:	40fffb2e 	bgeu	r8,r3,2744 <alt_up_pixel_buffer_dma_draw_box+0x88>
    2758:	00800044 	movi	r2,1
    275c:	308d883a 	add	r6,r6,r2
    2760:	59806636 	bltu	r11,r6,28fc <alt_up_pixel_buffer_dma_draw_box+0x240>
    2764:	1284983a 	sll	r2,r2,r10
    2768:	388f883a 	add	r7,r7,r2
    276c:	417ffa36 	bltu	r8,r5,2758 <alt_up_pixel_buffer_dma_draw_box+0x9c>
    2770:	29c9883a 	add	r4,r5,r7
    2774:	2807883a 	mov	r3,r5
    2778:	003ff206 	br	2744 <alt_up_pixel_buffer_dma_draw_box+0x88>
    277c:	00800084 	movi	r2,2
    2780:	2080021e 	bne	r4,r2,278c <alt_up_pixel_buffer_dma_draw_box+0xd0>
    2784:	59805d36 	bltu	r11,r6,28fc <alt_up_pixel_buffer_dma_draw_box+0x240>
    2788:	00000e06 	br	27c4 <alt_up_pixel_buffer_dma_draw_box+0x108>
    278c:	59805b36 	bltu	r11,r6,28fc <alt_up_pixel_buffer_dma_draw_box+0x240>
    2790:	00001b06 	br	2800 <alt_up_pixel_buffer_dma_draw_box+0x144>
    2794:	2807883a 	mov	r3,r5
    2798:	01000044 	movi	r4,1
    279c:	18c5883a 	add	r2,r3,r3
    27a0:	11c5883a 	add	r2,r2,r7
    27a4:	1240002d 	sthio	r9,0(r2)
    27a8:	1907883a 	add	r3,r3,r4
    27ac:	40fffb2e 	bgeu	r8,r3,279c <alt_up_pixel_buffer_dma_draw_box+0xe0>
    27b0:	00800044 	movi	r2,1
    27b4:	308d883a 	add	r6,r6,r2
    27b8:	59805036 	bltu	r11,r6,28fc <alt_up_pixel_buffer_dma_draw_box+0x240>
    27bc:	1284983a 	sll	r2,r2,r10
    27c0:	388f883a 	add	r7,r7,r2
    27c4:	417ff32e 	bgeu	r8,r5,2794 <alt_up_pixel_buffer_dma_draw_box+0xd8>
    27c8:	003ff906 	br	27b0 <alt_up_pixel_buffer_dma_draw_box+0xf4>
    27cc:	2807883a 	mov	r3,r5
    27d0:	01000044 	movi	r4,1
    27d4:	18c5883a 	add	r2,r3,r3
    27d8:	1085883a 	add	r2,r2,r2
    27dc:	11c5883a 	add	r2,r2,r7
    27e0:	12400035 	stwio	r9,0(r2)
    27e4:	1907883a 	add	r3,r3,r4
    27e8:	40fffa2e 	bgeu	r8,r3,27d4 <alt_up_pixel_buffer_dma_draw_box+0x118>
    27ec:	00800044 	movi	r2,1
    27f0:	308d883a 	add	r6,r6,r2
    27f4:	59804136 	bltu	r11,r6,28fc <alt_up_pixel_buffer_dma_draw_box+0x240>
    27f8:	1284983a 	sll	r2,r2,r10
    27fc:	388f883a 	add	r7,r7,r2
    2800:	417ff22e 	bgeu	r8,r5,27cc <alt_up_pixel_buffer_dma_draw_box+0x110>
    2804:	003ff906 	br	27ec <alt_up_pixel_buffer_dma_draw_box+0x130>
    2808:	21000e17 	ldw	r4,56(r4)
    280c:	00800044 	movi	r2,1
    2810:	2080121e 	bne	r4,r2,285c <alt_up_pixel_buffer_dma_draw_box+0x1a0>
    2814:	59803936 	bltu	r11,r6,28fc <alt_up_pixel_buffer_dma_draw_box+0x240>
    2818:	5019883a 	mov	r12,r10
    281c:	3285383a 	mul	r2,r6,r10
    2820:	1885883a 	add	r2,r3,r2
    2824:	114f883a 	add	r7,r2,r5
    2828:	00000806 	br	284c <alt_up_pixel_buffer_dma_draw_box+0x190>
    282c:	22400025 	stbio	r9,0(r4)
    2830:	00800044 	movi	r2,1
    2834:	1887883a 	add	r3,r3,r2
    2838:	2089883a 	add	r4,r4,r2
    283c:	40fffb2e 	bgeu	r8,r3,282c <alt_up_pixel_buffer_dma_draw_box+0x170>
    2840:	31800044 	addi	r6,r6,1
    2844:	3b0f883a 	add	r7,r7,r12
    2848:	59802c36 	bltu	r11,r6,28fc <alt_up_pixel_buffer_dma_draw_box+0x240>
    284c:	417ffc36 	bltu	r8,r5,2840 <alt_up_pixel_buffer_dma_draw_box+0x184>
    2850:	3809883a 	mov	r4,r7
    2854:	2807883a 	mov	r3,r5
    2858:	003ff406 	br	282c <alt_up_pixel_buffer_dma_draw_box+0x170>
    285c:	00800084 	movi	r2,2
    2860:	2080121e 	bne	r4,r2,28ac <alt_up_pixel_buffer_dma_draw_box+0x1f0>
    2864:	59802536 	bltu	r11,r6,28fc <alt_up_pixel_buffer_dma_draw_box+0x240>
    2868:	5295883a 	add	r10,r10,r10
    286c:	3285383a 	mul	r2,r6,r10
    2870:	1889883a 	add	r4,r3,r2
    2874:	03000044 	movi	r12,1
    2878:	00000a06 	br	28a4 <alt_up_pixel_buffer_dma_draw_box+0x1e8>
    287c:	2807883a 	mov	r3,r5
    2880:	01c00044 	movi	r7,1
    2884:	18c5883a 	add	r2,r3,r3
    2888:	1105883a 	add	r2,r2,r4
    288c:	1240002d 	sthio	r9,0(r2)
    2890:	19c7883a 	add	r3,r3,r7
    2894:	40fffb2e 	bgeu	r8,r3,2884 <alt_up_pixel_buffer_dma_draw_box+0x1c8>
    2898:	330d883a 	add	r6,r6,r12
    289c:	59801736 	bltu	r11,r6,28fc <alt_up_pixel_buffer_dma_draw_box+0x240>
    28a0:	2289883a 	add	r4,r4,r10
    28a4:	417ff52e 	bgeu	r8,r5,287c <alt_up_pixel_buffer_dma_draw_box+0x1c0>
    28a8:	003ffb06 	br	2898 <alt_up_pixel_buffer_dma_draw_box+0x1dc>
    28ac:	59801336 	bltu	r11,r6,28fc <alt_up_pixel_buffer_dma_draw_box+0x240>
    28b0:	5285883a 	add	r2,r10,r10
    28b4:	1095883a 	add	r10,r2,r2
    28b8:	3285383a 	mul	r2,r6,r10
    28bc:	1889883a 	add	r4,r3,r2
    28c0:	03000044 	movi	r12,1
    28c4:	00000b06 	br	28f4 <alt_up_pixel_buffer_dma_draw_box+0x238>
    28c8:	2807883a 	mov	r3,r5
    28cc:	01c00044 	movi	r7,1
    28d0:	18c5883a 	add	r2,r3,r3
    28d4:	1085883a 	add	r2,r2,r2
    28d8:	1105883a 	add	r2,r2,r4
    28dc:	12400035 	stwio	r9,0(r2)
    28e0:	19c7883a 	add	r3,r3,r7
    28e4:	40fffa2e 	bgeu	r8,r3,28d0 <alt_up_pixel_buffer_dma_draw_box+0x214>
    28e8:	330d883a 	add	r6,r6,r12
    28ec:	59800336 	bltu	r11,r6,28fc <alt_up_pixel_buffer_dma_draw_box+0x240>
    28f0:	2289883a 	add	r4,r4,r10
    28f4:	417ff42e 	bgeu	r8,r5,28c8 <alt_up_pixel_buffer_dma_draw_box+0x20c>
    28f8:	003ffb06 	br	28e8 <alt_up_pixel_buffer_dma_draw_box+0x22c>
    28fc:	f800283a 	ret

00002900 <alt_up_pixel_buffer_dma_clear_screen>:
    2900:	00800044 	movi	r2,1
    2904:	2880021e 	bne	r5,r2,2910 <alt_up_pixel_buffer_dma_clear_screen+0x10>
    2908:	21c00c17 	ldw	r7,48(r4)
    290c:	00000106 	br	2914 <alt_up_pixel_buffer_dma_clear_screen+0x14>
    2910:	21c00b17 	ldw	r7,44(r4)
    2914:	21400f17 	ldw	r5,60(r4)
    2918:	20c00e17 	ldw	r3,56(r4)
    291c:	00800084 	movi	r2,2
    2920:	1880021e 	bne	r3,r2,292c <alt_up_pixel_buffer_dma_clear_screen+0x2c>
    2924:	294d883a 	add	r6,r5,r5
    2928:	00000206 	br	2934 <alt_up_pixel_buffer_dma_clear_screen+0x34>
    292c:	2945883a 	add	r2,r5,r5
    2930:	108d883a 	add	r6,r2,r2
    2934:	22401017 	ldw	r9,64(r4)
    2938:	20800d17 	ldw	r2,52(r4)
    293c:	1000121e 	bne	r2,zero,2988 <alt_up_pixel_buffer_dma_clear_screen+0x88>
    2940:	21001317 	ldw	r4,76(r4)
    2944:	48001a26 	beq	r9,zero,29b0 <alt_up_pixel_buffer_dma_clear_screen+0xb0>
    2948:	0011883a 	mov	r8,zero
    294c:	3014c03a 	cmpne	r10,r6,zero
    2950:	00000b06 	br	2980 <alt_up_pixel_buffer_dma_clear_screen+0x80>
    2954:	0007883a 	mov	r3,zero
    2958:	01400104 	movi	r5,4
    295c:	19c5883a 	add	r2,r3,r7
    2960:	10000035 	stwio	zero,0(r2)
    2964:	1947883a 	add	r3,r3,r5
    2968:	19bffc36 	bltu	r3,r6,295c <alt_up_pixel_buffer_dma_clear_screen+0x5c>
    296c:	00800044 	movi	r2,1
    2970:	4091883a 	add	r8,r8,r2
    2974:	4a000e26 	beq	r9,r8,29b0 <alt_up_pixel_buffer_dma_clear_screen+0xb0>
    2978:	1104983a 	sll	r2,r2,r4
    297c:	388f883a 	add	r7,r7,r2
    2980:	503ff41e 	bne	r10,zero,2954 <alt_up_pixel_buffer_dma_clear_screen+0x54>
    2984:	003ff906 	br	296c <alt_up_pixel_buffer_dma_clear_screen+0x6c>
    2988:	3249383a 	mul	r4,r6,r9
    298c:	20000826 	beq	r4,zero,29b0 <alt_up_pixel_buffer_dma_clear_screen+0xb0>
    2990:	0007883a 	mov	r3,zero
    2994:	0005883a 	mov	r2,zero
    2998:	01400104 	movi	r5,4
    299c:	3885883a 	add	r2,r7,r2
    29a0:	10000035 	stwio	zero,0(r2)
    29a4:	1945883a 	add	r2,r3,r5
    29a8:	1007883a 	mov	r3,r2
    29ac:	113ffb36 	bltu	r2,r4,299c <alt_up_pixel_buffer_dma_clear_screen+0x9c>
    29b0:	f800283a 	ret

000029b4 <alt_up_pixel_buffer_dma_swap_buffers>:
    29b4:	21400c17 	ldw	r5,48(r4)
    29b8:	20c00a17 	ldw	r3,40(r4)
    29bc:	00800044 	movi	r2,1
    29c0:	18800035 	stwio	r2,0(r3)
    29c4:	20800b17 	ldw	r2,44(r4)
    29c8:	20800c15 	stw	r2,48(r4)
    29cc:	21400b15 	stw	r5,44(r4)
    29d0:	0005883a 	mov	r2,zero
    29d4:	f800283a 	ret

000029d8 <alt_up_pixel_buffer_dma_draw>:
    29d8:	2011883a 	mov	r8,r4
    29dc:	22400f17 	ldw	r9,60(r4)
    29e0:	32402a2e 	bgeu	r6,r9,2a8c <alt_up_pixel_buffer_dma_draw+0xb4>
    29e4:	20801017 	ldw	r2,64(r4)
    29e8:	3880282e 	bgeu	r7,r2,2a8c <alt_up_pixel_buffer_dma_draw+0xb4>
    29ec:	20800d17 	ldw	r2,52(r4)
    29f0:	10000a1e 	bne	r2,zero,2a1c <alt_up_pixel_buffer_dma_draw+0x44>
    29f4:	21001217 	ldw	r4,72(r4)
    29f8:	3108703a 	and	r4,r6,r4
    29fc:	40801117 	ldw	r2,68(r8)
    2a00:	2088983a 	sll	r4,r4,r2
    2a04:	40801417 	ldw	r2,80(r8)
    2a08:	3884703a 	and	r2,r7,r2
    2a0c:	40c01317 	ldw	r3,76(r8)
    2a10:	10c4983a 	sll	r2,r2,r3
    2a14:	2086b03a 	or	r3,r4,r2
    2a18:	00000806 	br	2a3c <alt_up_pixel_buffer_dma_draw+0x64>
    2a1c:	21001117 	ldw	r4,68(r4)
    2a20:	40c01217 	ldw	r3,72(r8)
    2a24:	30c6703a 	and	r3,r6,r3
    2a28:	40801417 	ldw	r2,80(r8)
    2a2c:	3884703a 	and	r2,r7,r2
    2a30:	4885383a 	mul	r2,r9,r2
    2a34:	10c5883a 	add	r2,r2,r3
    2a38:	1106983a 	sll	r3,r2,r4
    2a3c:	42400e17 	ldw	r9,56(r8)
    2a40:	00800044 	movi	r2,1
    2a44:	4880051e 	bne	r9,r2,2a5c <alt_up_pixel_buffer_dma_draw+0x84>
    2a48:	40800c17 	ldw	r2,48(r8)
    2a4c:	1885883a 	add	r2,r3,r2
    2a50:	11400025 	stbio	r5,0(r2)
    2a54:	0005883a 	mov	r2,zero
    2a58:	f800283a 	ret
    2a5c:	00800084 	movi	r2,2
    2a60:	4880051e 	bne	r9,r2,2a78 <alt_up_pixel_buffer_dma_draw+0xa0>
    2a64:	40800c17 	ldw	r2,48(r8)
    2a68:	1885883a 	add	r2,r3,r2
    2a6c:	1140002d 	sthio	r5,0(r2)
    2a70:	0005883a 	mov	r2,zero
    2a74:	f800283a 	ret
    2a78:	40800c17 	ldw	r2,48(r8)
    2a7c:	1885883a 	add	r2,r3,r2
    2a80:	11400035 	stwio	r5,0(r2)
    2a84:	0005883a 	mov	r2,zero
    2a88:	f800283a 	ret
    2a8c:	00bfffc4 	movi	r2,-1
    2a90:	f800283a 	ret

00002a94 <alt_up_pixel_buffer_dma_check_swap_buffers_status>:
    2a94:	20800a17 	ldw	r2,40(r4)
    2a98:	10800337 	ldwio	r2,12(r2)
    2a9c:	1080004c 	andi	r2,r2,1
    2aa0:	f800283a 	ret

00002aa4 <alt_up_pixel_buffer_dma_change_back_buffer_address>:
    2aa4:	00c00104 	movi	r3,4
    2aa8:	20800a17 	ldw	r2,40(r4)
    2aac:	10c5883a 	add	r2,r2,r3
    2ab0:	11400035 	stwio	r5,0(r2)
    2ab4:	20800a17 	ldw	r2,40(r4)
    2ab8:	10c5883a 	add	r2,r2,r3
    2abc:	10800037 	ldwio	r2,0(r2)
    2ac0:	20800c15 	stw	r2,48(r4)
    2ac4:	0005883a 	mov	r2,zero
    2ac8:	f800283a 	ret

00002acc <alt_up_pixel_buffer_dma_open_dev>:
    2acc:	deffff04 	addi	sp,sp,-4
    2ad0:	dfc00015 	stw	ra,0(sp)
    2ad4:	014000f4 	movhi	r5,3
    2ad8:	29769004 	addi	r5,r5,-9664
    2adc:	0002cd80 	call	2cd8 <alt_find_dev>
    2ae0:	dfc00017 	ldw	ra,0(sp)
    2ae4:	dec00104 	addi	sp,sp,4
    2ae8:	f800283a 	ret

00002aec <alt_alarm_start>:
    2aec:	008000f4 	movhi	r2,3
    2af0:	10b6a204 	addi	r2,r2,-9592
    2af4:	10800017 	ldw	r2,0(r2)
    2af8:	1000021e 	bne	r2,zero,2b04 <alt_alarm_start+0x18>
    2afc:	00bfde84 	movi	r2,-134
    2b00:	f800283a 	ret
    2b04:	2000021e 	bne	r4,zero,2b10 <alt_alarm_start+0x24>
    2b08:	00bffa84 	movi	r2,-22
    2b0c:	f800283a 	ret
    2b10:	21800315 	stw	r6,12(r4)
    2b14:	21c00515 	stw	r7,20(r4)
    2b18:	000f303a 	rdctl	r7,status
    2b1c:	00bfff84 	movi	r2,-2
    2b20:	3884703a 	and	r2,r7,r2
    2b24:	1001703a 	wrctl	status,r2
    2b28:	008000f4 	movhi	r2,3
    2b2c:	10b6a304 	addi	r2,r2,-9588
    2b30:	10c00017 	ldw	r3,0(r2)
    2b34:	01800044 	movi	r6,1
    2b38:	1985883a 	add	r2,r3,r6
    2b3c:	2885883a 	add	r2,r5,r2
    2b40:	20800215 	stw	r2,8(r4)
    2b44:	10c0022e 	bgeu	r2,r3,2b50 <alt_alarm_start+0x64>
    2b48:	21800405 	stb	r6,16(r4)
    2b4c:	00000106 	br	2b54 <alt_alarm_start+0x68>
    2b50:	20000405 	stb	zero,16(r4)
    2b54:	008000f4 	movhi	r2,3
    2b58:	10b69404 	addi	r2,r2,-9648
    2b5c:	20800115 	stw	r2,4(r4)
    2b60:	10c00017 	ldw	r3,0(r2)
    2b64:	20c00015 	stw	r3,0(r4)
    2b68:	10c00017 	ldw	r3,0(r2)
    2b6c:	19000115 	stw	r4,4(r3)
    2b70:	11000015 	stw	r4,0(r2)
    2b74:	3801703a 	wrctl	status,r7
    2b78:	0005883a 	mov	r2,zero
    2b7c:	f800283a 	ret

00002b80 <close>:
    2b80:	defffd04 	addi	sp,sp,-12
    2b84:	dfc00215 	stw	ra,8(sp)
    2b88:	dc400115 	stw	r17,4(sp)
    2b8c:	dc000015 	stw	r16,0(sp)
    2b90:	2021883a 	mov	r16,r4
    2b94:	20001c16 	blt	r4,zero,2c08 <close+0x88>
    2b98:	20c00324 	muli	r3,r4,12
    2b9c:	008000f4 	movhi	r2,3
    2ba0:	10b42604 	addi	r2,r2,-12136
    2ba4:	1889883a 	add	r4,r3,r2
    2ba8:	20001726 	beq	r4,zero,2c08 <close+0x88>
    2bac:	20800017 	ldw	r2,0(r4)
    2bb0:	10800417 	ldw	r2,16(r2)
    2bb4:	10002126 	beq	r2,zero,2c3c <close+0xbc>
    2bb8:	103ee83a 	callr	r2
    2bbc:	1023883a 	mov	r17,r2
    2bc0:	8009883a 	mov	r4,r16
    2bc4:	0002fe00 	call	2fe0 <alt_release_fd>
    2bc8:	88000216 	blt	r17,zero,2bd4 <close+0x54>
    2bcc:	0005883a 	mov	r2,zero
    2bd0:	00001d06 	br	2c48 <close+0xc8>
    2bd4:	008000f4 	movhi	r2,3
    2bd8:	10b69304 	addi	r2,r2,-9652
    2bdc:	10800017 	ldw	r2,0(r2)
    2be0:	1000031e 	bne	r2,zero,2bf0 <close+0x70>
    2be4:	00c000f4 	movhi	r3,3
    2be8:	18f6a404 	addi	r3,r3,-9584
    2bec:	00000206 	br	2bf8 <close+0x78>
    2bf0:	103ee83a 	callr	r2
    2bf4:	1007883a 	mov	r3,r2
    2bf8:	0445c83a 	sub	r2,zero,r17
    2bfc:	18800015 	stw	r2,0(r3)
    2c00:	00bfffc4 	movi	r2,-1
    2c04:	00001006 	br	2c48 <close+0xc8>
    2c08:	008000f4 	movhi	r2,3
    2c0c:	10b69304 	addi	r2,r2,-9652
    2c10:	10800017 	ldw	r2,0(r2)
    2c14:	1000031e 	bne	r2,zero,2c24 <close+0xa4>
    2c18:	00c000f4 	movhi	r3,3
    2c1c:	18f6a404 	addi	r3,r3,-9584
    2c20:	00000206 	br	2c2c <close+0xac>
    2c24:	103ee83a 	callr	r2
    2c28:	1007883a 	mov	r3,r2
    2c2c:	00801444 	movi	r2,81
    2c30:	18800015 	stw	r2,0(r3)
    2c34:	00bfffc4 	movi	r2,-1
    2c38:	00000306 	br	2c48 <close+0xc8>
    2c3c:	8009883a 	mov	r4,r16
    2c40:	0002fe00 	call	2fe0 <alt_release_fd>
    2c44:	0005883a 	mov	r2,zero
    2c48:	dfc00217 	ldw	ra,8(sp)
    2c4c:	dc400117 	ldw	r17,4(sp)
    2c50:	dc000017 	ldw	r16,0(sp)
    2c54:	dec00304 	addi	sp,sp,12
    2c58:	f800283a 	ret

00002c5c <alt_dcache_flush_all>:
    2c5c:	f800283a 	ret

00002c60 <alt_dev_null_write>:
    2c60:	3005883a 	mov	r2,r6
    2c64:	f800283a 	ret

00002c68 <alt_dev_llist_insert>:
    2c68:	deffff04 	addi	sp,sp,-4
    2c6c:	dfc00015 	stw	ra,0(sp)
    2c70:	20000226 	beq	r4,zero,2c7c <alt_dev_llist_insert+0x14>
    2c74:	20800217 	ldw	r2,8(r4)
    2c78:	10000d1e 	bne	r2,zero,2cb0 <alt_dev_llist_insert+0x48>
    2c7c:	008000f4 	movhi	r2,3
    2c80:	10b69304 	addi	r2,r2,-9652
    2c84:	10800017 	ldw	r2,0(r2)
    2c88:	1000031e 	bne	r2,zero,2c98 <alt_dev_llist_insert+0x30>
    2c8c:	00c000f4 	movhi	r3,3
    2c90:	18f6a404 	addi	r3,r3,-9584
    2c94:	00000206 	br	2ca0 <alt_dev_llist_insert+0x38>
    2c98:	103ee83a 	callr	r2
    2c9c:	1007883a 	mov	r3,r2
    2ca0:	00800584 	movi	r2,22
    2ca4:	18800015 	stw	r2,0(r3)
    2ca8:	00bffa84 	movi	r2,-22
    2cac:	00000706 	br	2ccc <alt_dev_llist_insert+0x64>
    2cb0:	21400115 	stw	r5,4(r4)
    2cb4:	28800017 	ldw	r2,0(r5)
    2cb8:	20800015 	stw	r2,0(r4)
    2cbc:	28800017 	ldw	r2,0(r5)
    2cc0:	11000115 	stw	r4,4(r2)
    2cc4:	29000015 	stw	r4,0(r5)
    2cc8:	0005883a 	mov	r2,zero
    2ccc:	dfc00017 	ldw	ra,0(sp)
    2cd0:	dec00104 	addi	sp,sp,4
    2cd4:	f800283a 	ret

00002cd8 <alt_find_dev>:
    2cd8:	defffb04 	addi	sp,sp,-20
    2cdc:	dfc00415 	stw	ra,16(sp)
    2ce0:	dcc00315 	stw	r19,12(sp)
    2ce4:	dc800215 	stw	r18,8(sp)
    2ce8:	dc400115 	stw	r17,4(sp)
    2cec:	dc000015 	stw	r16,0(sp)
    2cf0:	2027883a 	mov	r19,r4
    2cf4:	2821883a 	mov	r16,r5
    2cf8:	2c400017 	ldw	r17,0(r5)
    2cfc:	00035a40 	call	35a4 <strlen>
    2d00:	14800044 	addi	r18,r2,1
    2d04:	8c000726 	beq	r17,r16,2d24 <alt_find_dev+0x4c>
    2d08:	89000217 	ldw	r4,8(r17)
    2d0c:	980b883a 	mov	r5,r19
    2d10:	900d883a 	mov	r6,r18
    2d14:	00032880 	call	3288 <memcmp>
    2d18:	10000326 	beq	r2,zero,2d28 <alt_find_dev+0x50>
    2d1c:	8c400017 	ldw	r17,0(r17)
    2d20:	847ff91e 	bne	r16,r17,2d08 <alt_find_dev+0x30>
    2d24:	0023883a 	mov	r17,zero
    2d28:	8805883a 	mov	r2,r17
    2d2c:	dfc00417 	ldw	ra,16(sp)
    2d30:	dcc00317 	ldw	r19,12(sp)
    2d34:	dc800217 	ldw	r18,8(sp)
    2d38:	dc400117 	ldw	r17,4(sp)
    2d3c:	dc000017 	ldw	r16,0(sp)
    2d40:	dec00504 	addi	sp,sp,20
    2d44:	f800283a 	ret

00002d48 <alt_icache_flush_all>:
    2d48:	deffff04 	addi	sp,sp,-4
    2d4c:	dfc00015 	stw	ra,0(sp)
    2d50:	0009883a 	mov	r4,zero
    2d54:	01440004 	movi	r5,4096
    2d58:	00032140 	call	3214 <alt_icache_flush>
    2d5c:	dfc00017 	ldw	ra,0(sp)
    2d60:	dec00104 	addi	sp,sp,4
    2d64:	f800283a 	ret

00002d68 <alt_open_fd>:
    2d68:	defffe04 	addi	sp,sp,-8
    2d6c:	dfc00115 	stw	ra,4(sp)
    2d70:	dc000015 	stw	r16,0(sp)
    2d74:	2021883a 	mov	r16,r4
    2d78:	2809883a 	mov	r4,r5
    2d7c:	300b883a 	mov	r5,r6
    2d80:	380d883a 	mov	r6,r7
    2d84:	0002e640 	call	2e64 <open>
    2d88:	1009883a 	mov	r4,r2
    2d8c:	10000b16 	blt	r2,zero,2dbc <alt_open_fd+0x54>
    2d90:	10c00324 	muli	r3,r2,12
    2d94:	008000f4 	movhi	r2,3
    2d98:	10b42604 	addi	r2,r2,-12136
    2d9c:	1887883a 	add	r3,r3,r2
    2da0:	18800017 	ldw	r2,0(r3)
    2da4:	80800015 	stw	r2,0(r16)
    2da8:	18800117 	ldw	r2,4(r3)
    2dac:	80800115 	stw	r2,4(r16)
    2db0:	18800217 	ldw	r2,8(r3)
    2db4:	80800215 	stw	r2,8(r16)
    2db8:	0002fe00 	call	2fe0 <alt_release_fd>
    2dbc:	dfc00117 	ldw	ra,4(sp)
    2dc0:	dc000017 	ldw	r16,0(sp)
    2dc4:	dec00204 	addi	sp,sp,8
    2dc8:	f800283a 	ret

00002dcc <alt_io_redirect>:
    2dcc:	defffa04 	addi	sp,sp,-24
    2dd0:	dfc00515 	stw	ra,20(sp)
    2dd4:	dd000415 	stw	r20,16(sp)
    2dd8:	dcc00315 	stw	r19,12(sp)
    2ddc:	dc800215 	stw	r18,8(sp)
    2de0:	dc400115 	stw	r17,4(sp)
    2de4:	dc000015 	stw	r16,0(sp)
    2de8:	2005883a 	mov	r2,r4
    2dec:	2827883a 	mov	r19,r5
    2df0:	3029883a 	mov	r20,r6
    2df4:	040000f4 	movhi	r16,3
    2df8:	84342904 	addi	r16,r16,-12124
    2dfc:	04800044 	movi	r18,1
    2e00:	04407fc4 	movi	r17,511
    2e04:	8009883a 	mov	r4,r16
    2e08:	100b883a 	mov	r5,r2
    2e0c:	900d883a 	mov	r6,r18
    2e10:	880f883a 	mov	r7,r17
    2e14:	0002d680 	call	2d68 <alt_open_fd>
    2e18:	843ffd04 	addi	r16,r16,-12
    2e1c:	8009883a 	mov	r4,r16
    2e20:	980b883a 	mov	r5,r19
    2e24:	000d883a 	mov	r6,zero
    2e28:	880f883a 	mov	r7,r17
    2e2c:	0002d680 	call	2d68 <alt_open_fd>
    2e30:	81000604 	addi	r4,r16,24
    2e34:	a00b883a 	mov	r5,r20
    2e38:	900d883a 	mov	r6,r18
    2e3c:	880f883a 	mov	r7,r17
    2e40:	0002d680 	call	2d68 <alt_open_fd>
    2e44:	dfc00517 	ldw	ra,20(sp)
    2e48:	dd000417 	ldw	r20,16(sp)
    2e4c:	dcc00317 	ldw	r19,12(sp)
    2e50:	dc800217 	ldw	r18,8(sp)
    2e54:	dc400117 	ldw	r17,4(sp)
    2e58:	dc000017 	ldw	r16,0(sp)
    2e5c:	dec00604 	addi	sp,sp,24
    2e60:	f800283a 	ret

00002e64 <open>:
    2e64:	defff904 	addi	sp,sp,-28
    2e68:	dfc00615 	stw	ra,24(sp)
    2e6c:	dd400515 	stw	r21,20(sp)
    2e70:	dd000415 	stw	r20,16(sp)
    2e74:	dcc00315 	stw	r19,12(sp)
    2e78:	dc800215 	stw	r18,8(sp)
    2e7c:	dc400115 	stw	r17,4(sp)
    2e80:	dc000015 	stw	r16,0(sp)
    2e84:	2029883a 	mov	r20,r4
    2e88:	2827883a 	mov	r19,r5
    2e8c:	302b883a 	mov	r21,r6
    2e90:	014000f4 	movhi	r5,3
    2e94:	29769004 	addi	r5,r5,-9664
    2e98:	0002cd80 	call	2cd8 <alt_find_dev>
    2e9c:	1021883a 	mov	r16,r2
    2ea0:	10000226 	beq	r2,zero,2eac <open+0x48>
    2ea4:	0025883a 	mov	r18,zero
    2ea8:	00000a06 	br	2ed4 <open+0x70>
    2eac:	a009883a 	mov	r4,r20
    2eb0:	00030ec0 	call	30ec <alt_find_file>
    2eb4:	1021883a 	mov	r16,r2
    2eb8:	1000051e 	bne	r2,zero,2ed0 <open+0x6c>
    2ebc:	047fffc4 	movi	r17,-1
    2ec0:	043ffb44 	movi	r16,-19
    2ec4:	00002b06 	br	2f74 <open+0x110>
    2ec8:	043ffcc4 	movi	r16,-13
    2ecc:	00002906 	br	2f74 <open+0x110>
    2ed0:	04800044 	movi	r18,1
    2ed4:	8009883a 	mov	r4,r16
    2ed8:	00031a80 	call	31a8 <alt_get_fd>
    2edc:	1023883a 	mov	r17,r2
    2ee0:	10003316 	blt	r2,zero,2fb0 <open+0x14c>
    2ee4:	10800324 	muli	r2,r2,12
    2ee8:	020000f4 	movhi	r8,3
    2eec:	42342604 	addi	r8,r8,-12136
    2ef0:	1209883a 	add	r4,r2,r8
    2ef4:	00900034 	movhi	r2,16384
    2ef8:	10bfffc4 	addi	r2,r2,-1
    2efc:	9886703a 	and	r3,r19,r2
    2f00:	20c00215 	stw	r3,8(r4)
    2f04:	9004c03a 	cmpne	r2,r18,zero
    2f08:	1000121e 	bne	r2,zero,2f54 <open+0xf0>
    2f0c:	18900034 	orhi	r2,r3,16384
    2f10:	20800215 	stw	r2,8(r4)
    2f14:	008000f4 	movhi	r2,3
    2f18:	10b69204 	addi	r2,r2,-9656
    2f1c:	11c00017 	ldw	r7,0(r2)
    2f20:	21800017 	ldw	r6,0(r4)
    2f24:	000b883a 	mov	r5,zero
    2f28:	4007883a 	mov	r3,r8
    2f2c:	02400044 	movi	r9,1
    2f30:	02000304 	movi	r8,12
    2f34:	18800017 	ldw	r2,0(r3)
    2f38:	1180031e 	bne	r2,r6,2f48 <open+0xe4>
    2f3c:	18800217 	ldw	r2,8(r3)
    2f40:	1000010e 	bge	r2,zero,2f48 <open+0xe4>
    2f44:	193fe01e 	bne	r3,r4,2ec8 <open+0x64>
    2f48:	2a4b883a 	add	r5,r5,r9
    2f4c:	1a07883a 	add	r3,r3,r8
    2f50:	397ff82e 	bgeu	r7,r5,2f34 <open+0xd0>
    2f54:	80800317 	ldw	r2,12(r16)
    2f58:	10001726 	beq	r2,zero,2fb8 <open+0x154>
    2f5c:	a00b883a 	mov	r5,r20
    2f60:	980d883a 	mov	r6,r19
    2f64:	a80f883a 	mov	r7,r21
    2f68:	103ee83a 	callr	r2
    2f6c:	1021883a 	mov	r16,r2
    2f70:	1000110e 	bge	r2,zero,2fb8 <open+0x154>
    2f74:	8809883a 	mov	r4,r17
    2f78:	0002fe00 	call	2fe0 <alt_release_fd>
    2f7c:	008000f4 	movhi	r2,3
    2f80:	10b69304 	addi	r2,r2,-9652
    2f84:	10800017 	ldw	r2,0(r2)
    2f88:	1000031e 	bne	r2,zero,2f98 <open+0x134>
    2f8c:	00c000f4 	movhi	r3,3
    2f90:	18f6a404 	addi	r3,r3,-9584
    2f94:	00000206 	br	2fa0 <open+0x13c>
    2f98:	103ee83a 	callr	r2
    2f9c:	1007883a 	mov	r3,r2
    2fa0:	0405c83a 	sub	r2,zero,r16
    2fa4:	18800015 	stw	r2,0(r3)
    2fa8:	047fffc4 	movi	r17,-1
    2fac:	00000206 	br	2fb8 <open+0x154>
    2fb0:	1021883a 	mov	r16,r2
    2fb4:	003fef06 	br	2f74 <open+0x110>
    2fb8:	8805883a 	mov	r2,r17
    2fbc:	dfc00617 	ldw	ra,24(sp)
    2fc0:	dd400517 	ldw	r21,20(sp)
    2fc4:	dd000417 	ldw	r20,16(sp)
    2fc8:	dcc00317 	ldw	r19,12(sp)
    2fcc:	dc800217 	ldw	r18,8(sp)
    2fd0:	dc400117 	ldw	r17,4(sp)
    2fd4:	dc000017 	ldw	r16,0(sp)
    2fd8:	dec00704 	addi	sp,sp,28
    2fdc:	f800283a 	ret

00002fe0 <alt_release_fd>:
    2fe0:	00800084 	movi	r2,2
    2fe4:	1100060e 	bge	r2,r4,3000 <alt_release_fd+0x20>
    2fe8:	20800324 	muli	r2,r4,12
    2fec:	00c000f4 	movhi	r3,3
    2ff0:	18f42604 	addi	r3,r3,-12136
    2ff4:	10c5883a 	add	r2,r2,r3
    2ff8:	10000215 	stw	zero,8(r2)
    2ffc:	10000015 	stw	zero,0(r2)
    3000:	f800283a 	ret

00003004 <alt_alarm_stop>:
    3004:	000b303a 	rdctl	r5,status
    3008:	00bfff84 	movi	r2,-2
    300c:	2884703a 	and	r2,r5,r2
    3010:	1001703a 	wrctl	status,r2
    3014:	20c00017 	ldw	r3,0(r4)
    3018:	20800117 	ldw	r2,4(r4)
    301c:	18800115 	stw	r2,4(r3)
    3020:	20800117 	ldw	r2,4(r4)
    3024:	10c00015 	stw	r3,0(r2)
    3028:	21000115 	stw	r4,4(r4)
    302c:	21000015 	stw	r4,0(r4)
    3030:	2801703a 	wrctl	status,r5
    3034:	f800283a 	ret

00003038 <alt_tick>:
    3038:	defffd04 	addi	sp,sp,-12
    303c:	dfc00215 	stw	ra,8(sp)
    3040:	dc400115 	stw	r17,4(sp)
    3044:	dc000015 	stw	r16,0(sp)
    3048:	d4200c17 	ldw	r16,-32720(gp)
    304c:	d0a01b17 	ldw	r2,-32660(gp)
    3050:	10800044 	addi	r2,r2,1
    3054:	d0a01b15 	stw	r2,-32660(gp)
    3058:	00001b06 	br	30c8 <alt_tick+0x90>
    305c:	84400017 	ldw	r17,0(r16)
    3060:	80800403 	ldbu	r2,16(r16)
    3064:	10000326 	beq	r2,zero,3074 <alt_tick+0x3c>
    3068:	d0a01b17 	ldw	r2,-32660(gp)
    306c:	1000011e 	bne	r2,zero,3074 <alt_tick+0x3c>
    3070:	80000405 	stb	zero,16(r16)
    3074:	d0e01b17 	ldw	r3,-32660(gp)
    3078:	80800217 	ldw	r2,8(r16)
    307c:	18801136 	bltu	r3,r2,30c4 <alt_tick+0x8c>
    3080:	80800403 	ldbu	r2,16(r16)
    3084:	10000f1e 	bne	r2,zero,30c4 <alt_tick+0x8c>
    3088:	80800317 	ldw	r2,12(r16)
    308c:	81000517 	ldw	r4,20(r16)
    3090:	103ee83a 	callr	r2
    3094:	1007883a 	mov	r3,r2
    3098:	1000031e 	bne	r2,zero,30a8 <alt_tick+0x70>
    309c:	8009883a 	mov	r4,r16
    30a0:	00030040 	call	3004 <alt_alarm_stop>
    30a4:	00000706 	br	30c4 <alt_tick+0x8c>
    30a8:	80800217 	ldw	r2,8(r16)
    30ac:	1885883a 	add	r2,r3,r2
    30b0:	80800215 	stw	r2,8(r16)
    30b4:	d0e01b17 	ldw	r3,-32660(gp)
    30b8:	10c0022e 	bgeu	r2,r3,30c4 <alt_tick+0x8c>
    30bc:	00800044 	movi	r2,1
    30c0:	80800405 	stb	r2,16(r16)
    30c4:	8821883a 	mov	r16,r17
    30c8:	d0a00c04 	addi	r2,gp,-32720
    30cc:	80bfe31e 	bne	r16,r2,305c <alt_tick+0x24>
    30d0:	dfc00217 	ldw	ra,8(sp)
    30d4:	dc400117 	ldw	r17,4(sp)
    30d8:	dc000017 	ldw	r16,0(sp)
    30dc:	dec00304 	addi	sp,sp,12
    30e0:	f800283a 	ret

000030e4 <altera_nios2_qsys_irq_init>:
    30e4:	000170fa 	wrctl	ienable,zero
    30e8:	f800283a 	ret

000030ec <alt_find_file>:
    30ec:	defff904 	addi	sp,sp,-28
    30f0:	dfc00615 	stw	ra,24(sp)
    30f4:	dd400515 	stw	r21,20(sp)
    30f8:	dd000415 	stw	r20,16(sp)
    30fc:	dcc00315 	stw	r19,12(sp)
    3100:	dc800215 	stw	r18,8(sp)
    3104:	dc400115 	stw	r17,4(sp)
    3108:	dc000015 	stw	r16,0(sp)
    310c:	2025883a 	mov	r18,r4
    3110:	008000f4 	movhi	r2,3
    3114:	10b68e04 	addi	r2,r2,-9672
    3118:	14400017 	ldw	r17,0(r2)
    311c:	102b883a 	mov	r21,r2
    3120:	88801626 	beq	r17,r2,317c <alt_find_file+0x90>
    3124:	053fffc4 	movi	r20,-1
    3128:	04c00bc4 	movi	r19,47
    312c:	8c000217 	ldw	r16,8(r17)
    3130:	8009883a 	mov	r4,r16
    3134:	00035a40 	call	35a4 <strlen>
    3138:	1007883a 	mov	r3,r2
    313c:	8085883a 	add	r2,r16,r2
    3140:	1505883a 	add	r2,r2,r20
    3144:	10800007 	ldb	r2,0(r2)
    3148:	14c0011e 	bne	r2,r19,3150 <alt_find_file+0x64>
    314c:	1d07883a 	add	r3,r3,r20
    3150:	1c85883a 	add	r2,r3,r18
    3154:	10800007 	ldb	r2,0(r2)
    3158:	14c00126 	beq	r2,r19,3160 <alt_find_file+0x74>
    315c:	1000051e 	bne	r2,zero,3174 <alt_find_file+0x88>
    3160:	8009883a 	mov	r4,r16
    3164:	900b883a 	mov	r5,r18
    3168:	180d883a 	mov	r6,r3
    316c:	00032880 	call	3288 <memcmp>
    3170:	10000326 	beq	r2,zero,3180 <alt_find_file+0x94>
    3174:	8c400017 	ldw	r17,0(r17)
    3178:	8d7fec1e 	bne	r17,r21,312c <alt_find_file+0x40>
    317c:	0023883a 	mov	r17,zero
    3180:	8805883a 	mov	r2,r17
    3184:	dfc00617 	ldw	ra,24(sp)
    3188:	dd400517 	ldw	r21,20(sp)
    318c:	dd000417 	ldw	r20,16(sp)
    3190:	dcc00317 	ldw	r19,12(sp)
    3194:	dc800217 	ldw	r18,8(sp)
    3198:	dc400117 	ldw	r17,4(sp)
    319c:	dc000017 	ldw	r16,0(sp)
    31a0:	dec00704 	addi	sp,sp,28
    31a4:	f800283a 	ret

000031a8 <alt_get_fd>:
    31a8:	000b883a 	mov	r5,zero
    31ac:	00c000f4 	movhi	r3,3
    31b0:	18f42604 	addi	r3,r3,-12136
    31b4:	02000304 	movi	r8,12
    31b8:	024000f4 	movhi	r9,3
    31bc:	4a769204 	addi	r9,r9,-9656
    31c0:	01c00044 	movi	r7,1
    31c4:	01800804 	movi	r6,32
    31c8:	18800017 	ldw	r2,0(r3)
    31cc:	10000c1e 	bne	r2,zero,3200 <alt_get_fd+0x58>
    31d0:	2a05383a 	mul	r2,r5,r8
    31d4:	00c000f4 	movhi	r3,3
    31d8:	18f42604 	addi	r3,r3,-12136
    31dc:	10c5883a 	add	r2,r2,r3
    31e0:	11000015 	stw	r4,0(r2)
    31e4:	48800017 	ldw	r2,0(r9)
    31e8:	11400216 	blt	r2,r5,31f4 <alt_get_fd+0x4c>
    31ec:	2805883a 	mov	r2,r5
    31f0:	f800283a 	ret
    31f4:	49400015 	stw	r5,0(r9)
    31f8:	2805883a 	mov	r2,r5
    31fc:	f800283a 	ret
    3200:	29cb883a 	add	r5,r5,r7
    3204:	1a07883a 	add	r3,r3,r8
    3208:	29bfef1e 	bne	r5,r6,31c8 <alt_get_fd+0x20>
    320c:	00bffa04 	movi	r2,-24
    3210:	f800283a 	ret

00003214 <alt_icache_flush>:
    3214:	2007883a 	mov	r3,r4
    3218:	00840004 	movi	r2,4096
    321c:	1140012e 	bgeu	r2,r5,3224 <alt_icache_flush+0x10>
    3220:	100b883a 	mov	r5,r2
    3224:	194b883a 	add	r5,r3,r5
    3228:	1940042e 	bgeu	r3,r5,323c <alt_icache_flush+0x28>
    322c:	00800804 	movi	r2,32
    3230:	1800603a 	flushi	r3
    3234:	1887883a 	add	r3,r3,r2
    3238:	197ffd36 	bltu	r3,r5,3230 <alt_icache_flush+0x1c>
    323c:	208007cc 	andi	r2,r4,31
    3240:	10000126 	beq	r2,zero,3248 <alt_icache_flush+0x34>
    3244:	1800603a 	flushi	r3
    3248:	0000203a 	flushp
    324c:	f800283a 	ret

00003250 <exit>:
    3250:	defffe04 	addi	sp,sp,-8
    3254:	000b883a 	mov	r5,zero
    3258:	dc000015 	stw	r16,0(sp)
    325c:	dfc00115 	stw	ra,4(sp)
    3260:	2021883a 	mov	r16,r4
    3264:	00038a40 	call	38a4 <__call_exitprocs>
    3268:	008000f4 	movhi	r2,3
    326c:	10b69704 	addi	r2,r2,-9636
    3270:	11000017 	ldw	r4,0(r2)
    3274:	20800f17 	ldw	r2,60(r4)
    3278:	10000126 	beq	r2,zero,3280 <exit+0x30>
    327c:	103ee83a 	callr	r2
    3280:	8009883a 	mov	r4,r16
    3284:	000540c0 	call	540c <_exit>

00003288 <memcmp>:
    3288:	00c000c4 	movi	r3,3
    328c:	1980032e 	bgeu	r3,r6,329c <memcmp+0x14>
    3290:	2144b03a 	or	r2,r4,r5
    3294:	10c4703a 	and	r2,r2,r3
    3298:	10000f26 	beq	r2,zero,32d8 <memcmp+0x50>
    329c:	31ffffc4 	addi	r7,r6,-1
    32a0:	3000061e 	bne	r6,zero,32bc <memcmp+0x34>
    32a4:	00000a06 	br	32d0 <memcmp+0x48>
    32a8:	39ffffc4 	addi	r7,r7,-1
    32ac:	00bfffc4 	movi	r2,-1
    32b0:	21000044 	addi	r4,r4,1
    32b4:	29400044 	addi	r5,r5,1
    32b8:	38800526 	beq	r7,r2,32d0 <memcmp+0x48>
    32bc:	20c00003 	ldbu	r3,0(r4)
    32c0:	28800003 	ldbu	r2,0(r5)
    32c4:	18bff826 	beq	r3,r2,32a8 <memcmp+0x20>
    32c8:	1885c83a 	sub	r2,r3,r2
    32cc:	f800283a 	ret
    32d0:	0005883a 	mov	r2,zero
    32d4:	f800283a 	ret
    32d8:	180f883a 	mov	r7,r3
    32dc:	20c00017 	ldw	r3,0(r4)
    32e0:	28800017 	ldw	r2,0(r5)
    32e4:	18bfed1e 	bne	r3,r2,329c <memcmp+0x14>
    32e8:	31bfff04 	addi	r6,r6,-4
    32ec:	21000104 	addi	r4,r4,4
    32f0:	29400104 	addi	r5,r5,4
    32f4:	39bff936 	bltu	r7,r6,32dc <memcmp+0x54>
    32f8:	003fe806 	br	329c <memcmp+0x14>

000032fc <putc>:
    32fc:	defffc04 	addi	sp,sp,-16
    3300:	dc800215 	stw	r18,8(sp)
    3304:	048000f4 	movhi	r18,3
    3308:	94b69604 	addi	r18,r18,-9640
    330c:	90c00017 	ldw	r3,0(r18)
    3310:	dc400115 	stw	r17,4(sp)
    3314:	dc000015 	stw	r16,0(sp)
    3318:	dfc00315 	stw	ra,12(sp)
    331c:	2023883a 	mov	r17,r4
    3320:	2821883a 	mov	r16,r5
    3324:	18000226 	beq	r3,zero,3330 <putc+0x34>
    3328:	18800e17 	ldw	r2,56(r3)
    332c:	10001126 	beq	r2,zero,3374 <putc+0x78>
    3330:	80800217 	ldw	r2,8(r16)
    3334:	10ffffc4 	addi	r3,r2,-1
    3338:	80c00215 	stw	r3,8(r16)
    333c:	18001316 	blt	r3,zero,338c <putc+0x90>
    3340:	80800017 	ldw	r2,0(r16)
    3344:	14400005 	stb	r17,0(r2)
    3348:	80c00017 	ldw	r3,0(r16)
    334c:	18800044 	addi	r2,r3,1
    3350:	18c00003 	ldbu	r3,0(r3)
    3354:	80800015 	stw	r2,0(r16)
    3358:	1805883a 	mov	r2,r3
    335c:	dfc00317 	ldw	ra,12(sp)
    3360:	dc800217 	ldw	r18,8(sp)
    3364:	dc400117 	ldw	r17,4(sp)
    3368:	dc000017 	ldw	r16,0(sp)
    336c:	dec00404 	addi	sp,sp,16
    3370:	f800283a 	ret
    3374:	1809883a 	mov	r4,r3
    3378:	0003cec0 	call	3cec <__sinit>
    337c:	80800217 	ldw	r2,8(r16)
    3380:	10ffffc4 	addi	r3,r2,-1
    3384:	80c00215 	stw	r3,8(r16)
    3388:	183fed0e 	bge	r3,zero,3340 <putc+0x44>
    338c:	80800617 	ldw	r2,24(r16)
    3390:	18800f16 	blt	r3,r2,33d0 <putc+0xd4>
    3394:	80800017 	ldw	r2,0(r16)
    3398:	14400005 	stb	r17,0(r2)
    339c:	81000017 	ldw	r4,0(r16)
    33a0:	00800284 	movi	r2,10
    33a4:	20c00003 	ldbu	r3,0(r4)
    33a8:	18801226 	beq	r3,r2,33f4 <putc+0xf8>
    33ac:	20800044 	addi	r2,r4,1
    33b0:	80800015 	stw	r2,0(r16)
    33b4:	1805883a 	mov	r2,r3
    33b8:	dfc00317 	ldw	ra,12(sp)
    33bc:	dc800217 	ldw	r18,8(sp)
    33c0:	dc400117 	ldw	r17,4(sp)
    33c4:	dc000017 	ldw	r16,0(sp)
    33c8:	dec00404 	addi	sp,sp,16
    33cc:	f800283a 	ret
    33d0:	91000017 	ldw	r4,0(r18)
    33d4:	880b883a 	mov	r5,r17
    33d8:	800d883a 	mov	r6,r16
    33dc:	dfc00317 	ldw	ra,12(sp)
    33e0:	dc800217 	ldw	r18,8(sp)
    33e4:	dc400117 	ldw	r17,4(sp)
    33e8:	dc000017 	ldw	r16,0(sp)
    33ec:	dec00404 	addi	sp,sp,16
    33f0:	00036181 	jmpi	3618 <__swbuf_r>
    33f4:	91000017 	ldw	r4,0(r18)
    33f8:	180b883a 	mov	r5,r3
    33fc:	003ff606 	br	33d8 <putc+0xdc>

00003400 <_putc_r>:
    3400:	defffc04 	addi	sp,sp,-16
    3404:	dc400215 	stw	r17,8(sp)
    3408:	dc000115 	stw	r16,4(sp)
    340c:	dfc00315 	stw	ra,12(sp)
    3410:	2021883a 	mov	r16,r4
    3414:	2823883a 	mov	r17,r5
    3418:	20000226 	beq	r4,zero,3424 <_putc_r+0x24>
    341c:	20800e17 	ldw	r2,56(r4)
    3420:	10001026 	beq	r2,zero,3464 <_putc_r+0x64>
    3424:	30800217 	ldw	r2,8(r6)
    3428:	10ffffc4 	addi	r3,r2,-1
    342c:	30c00215 	stw	r3,8(r6)
    3430:	18001316 	blt	r3,zero,3480 <_putc_r+0x80>
    3434:	30800017 	ldw	r2,0(r6)
    3438:	14400005 	stb	r17,0(r2)
    343c:	30c00017 	ldw	r3,0(r6)
    3440:	18800044 	addi	r2,r3,1
    3444:	18c00003 	ldbu	r3,0(r3)
    3448:	30800015 	stw	r2,0(r6)
    344c:	1805883a 	mov	r2,r3
    3450:	dfc00317 	ldw	ra,12(sp)
    3454:	dc400217 	ldw	r17,8(sp)
    3458:	dc000117 	ldw	r16,4(sp)
    345c:	dec00404 	addi	sp,sp,16
    3460:	f800283a 	ret
    3464:	d9800015 	stw	r6,0(sp)
    3468:	0003cec0 	call	3cec <__sinit>
    346c:	d9800017 	ldw	r6,0(sp)
    3470:	30800217 	ldw	r2,8(r6)
    3474:	10ffffc4 	addi	r3,r2,-1
    3478:	30c00215 	stw	r3,8(r6)
    347c:	183fed0e 	bge	r3,zero,3434 <_putc_r+0x34>
    3480:	30800617 	ldw	r2,24(r6)
    3484:	18800e16 	blt	r3,r2,34c0 <_putc_r+0xc0>
    3488:	30800017 	ldw	r2,0(r6)
    348c:	14400005 	stb	r17,0(r2)
    3490:	31000017 	ldw	r4,0(r6)
    3494:	00800284 	movi	r2,10
    3498:	20c00003 	ldbu	r3,0(r4)
    349c:	18800f26 	beq	r3,r2,34dc <_putc_r+0xdc>
    34a0:	20800044 	addi	r2,r4,1
    34a4:	30800015 	stw	r2,0(r6)
    34a8:	1805883a 	mov	r2,r3
    34ac:	dfc00317 	ldw	ra,12(sp)
    34b0:	dc400217 	ldw	r17,8(sp)
    34b4:	dc000117 	ldw	r16,4(sp)
    34b8:	dec00404 	addi	sp,sp,16
    34bc:	f800283a 	ret
    34c0:	8009883a 	mov	r4,r16
    34c4:	880b883a 	mov	r5,r17
    34c8:	dfc00317 	ldw	ra,12(sp)
    34cc:	dc400217 	ldw	r17,8(sp)
    34d0:	dc000117 	ldw	r16,4(sp)
    34d4:	dec00404 	addi	sp,sp,16
    34d8:	00036181 	jmpi	3618 <__swbuf_r>
    34dc:	8009883a 	mov	r4,r16
    34e0:	180b883a 	mov	r5,r3
    34e4:	003ff806 	br	34c8 <_putc_r+0xc8>

000034e8 <strcmp>:
    34e8:	2144b03a 	or	r2,r4,r5
    34ec:	108000cc 	andi	r2,r2,3
    34f0:	10001d1e 	bne	r2,zero,3568 <strcmp+0x80>
    34f4:	200f883a 	mov	r7,r4
    34f8:	28800017 	ldw	r2,0(r5)
    34fc:	21000017 	ldw	r4,0(r4)
    3500:	280d883a 	mov	r6,r5
    3504:	2080161e 	bne	r4,r2,3560 <strcmp+0x78>
    3508:	023fbff4 	movhi	r8,65279
    350c:	423fbfc4 	addi	r8,r8,-257
    3510:	2207883a 	add	r3,r4,r8
    3514:	01602074 	movhi	r5,32897
    3518:	29602004 	addi	r5,r5,-32640
    351c:	1946703a 	and	r3,r3,r5
    3520:	0104303a 	nor	r2,zero,r4
    3524:	10c4703a 	and	r2,r2,r3
    3528:	10001c1e 	bne	r2,zero,359c <strcmp+0xb4>
    352c:	4013883a 	mov	r9,r8
    3530:	2811883a 	mov	r8,r5
    3534:	00000106 	br	353c <strcmp+0x54>
    3538:	1800181e 	bne	r3,zero,359c <strcmp+0xb4>
    353c:	39c00104 	addi	r7,r7,4
    3540:	39000017 	ldw	r4,0(r7)
    3544:	31800104 	addi	r6,r6,4
    3548:	31400017 	ldw	r5,0(r6)
    354c:	2245883a 	add	r2,r4,r9
    3550:	1204703a 	and	r2,r2,r8
    3554:	0106303a 	nor	r3,zero,r4
    3558:	1886703a 	and	r3,r3,r2
    355c:	217ff626 	beq	r4,r5,3538 <strcmp+0x50>
    3560:	3809883a 	mov	r4,r7
    3564:	300b883a 	mov	r5,r6
    3568:	20c00007 	ldb	r3,0(r4)
    356c:	1800051e 	bne	r3,zero,3584 <strcmp+0x9c>
    3570:	00000606 	br	358c <strcmp+0xa4>
    3574:	21000044 	addi	r4,r4,1
    3578:	20c00007 	ldb	r3,0(r4)
    357c:	29400044 	addi	r5,r5,1
    3580:	18000226 	beq	r3,zero,358c <strcmp+0xa4>
    3584:	28800007 	ldb	r2,0(r5)
    3588:	18bffa26 	beq	r3,r2,3574 <strcmp+0x8c>
    358c:	20c00003 	ldbu	r3,0(r4)
    3590:	28800003 	ldbu	r2,0(r5)
    3594:	1885c83a 	sub	r2,r3,r2
    3598:	f800283a 	ret
    359c:	0005883a 	mov	r2,zero
    35a0:	f800283a 	ret

000035a4 <strlen>:
    35a4:	208000cc 	andi	r2,r4,3
    35a8:	2011883a 	mov	r8,r4
    35ac:	1000161e 	bne	r2,zero,3608 <strlen+0x64>
    35b0:	20c00017 	ldw	r3,0(r4)
    35b4:	017fbff4 	movhi	r5,65279
    35b8:	297fbfc4 	addi	r5,r5,-257
    35bc:	01e02074 	movhi	r7,32897
    35c0:	39e02004 	addi	r7,r7,-32640
    35c4:	1945883a 	add	r2,r3,r5
    35c8:	11c4703a 	and	r2,r2,r7
    35cc:	00c6303a 	nor	r3,zero,r3
    35d0:	1886703a 	and	r3,r3,r2
    35d4:	18000c1e 	bne	r3,zero,3608 <strlen+0x64>
    35d8:	280d883a 	mov	r6,r5
    35dc:	380b883a 	mov	r5,r7
    35e0:	21000104 	addi	r4,r4,4
    35e4:	20800017 	ldw	r2,0(r4)
    35e8:	1187883a 	add	r3,r2,r6
    35ec:	1946703a 	and	r3,r3,r5
    35f0:	0084303a 	nor	r2,zero,r2
    35f4:	10c4703a 	and	r2,r2,r3
    35f8:	103ff926 	beq	r2,zero,35e0 <strlen+0x3c>
    35fc:	20800007 	ldb	r2,0(r4)
    3600:	10000326 	beq	r2,zero,3610 <strlen+0x6c>
    3604:	21000044 	addi	r4,r4,1
    3608:	20800007 	ldb	r2,0(r4)
    360c:	103ffd1e 	bne	r2,zero,3604 <strlen+0x60>
    3610:	2205c83a 	sub	r2,r4,r8
    3614:	f800283a 	ret

00003618 <__swbuf_r>:
    3618:	defffc04 	addi	sp,sp,-16
    361c:	dc400215 	stw	r17,8(sp)
    3620:	dc000115 	stw	r16,4(sp)
    3624:	dfc00315 	stw	ra,12(sp)
    3628:	2023883a 	mov	r17,r4
    362c:	2821883a 	mov	r16,r5
    3630:	20000226 	beq	r4,zero,363c <__swbuf_r+0x24>
    3634:	20800e17 	ldw	r2,56(r4)
    3638:	10002f26 	beq	r2,zero,36f8 <__swbuf_r+0xe0>
    363c:	3080030b 	ldhu	r2,12(r6)
    3640:	30c00617 	ldw	r3,24(r6)
    3644:	1080020c 	andi	r2,r2,8
    3648:	30c00215 	stw	r3,8(r6)
    364c:	10002226 	beq	r2,zero,36d8 <__swbuf_r+0xc0>
    3650:	30c00417 	ldw	r3,16(r6)
    3654:	18002026 	beq	r3,zero,36d8 <__swbuf_r+0xc0>
    3658:	31000017 	ldw	r4,0(r6)
    365c:	30800517 	ldw	r2,20(r6)
    3660:	20c7c83a 	sub	r3,r4,r3
    3664:	18802f0e 	bge	r3,r2,3724 <__swbuf_r+0x10c>
    3668:	19400044 	addi	r5,r3,1
    366c:	30800217 	ldw	r2,8(r6)
    3670:	84003fcc 	andi	r16,r16,255
    3674:	20c00044 	addi	r3,r4,1
    3678:	10bfffc4 	addi	r2,r2,-1
    367c:	30800215 	stw	r2,8(r6)
    3680:	24000005 	stb	r16,0(r4)
    3684:	30800517 	ldw	r2,20(r6)
    3688:	30c00015 	stw	r3,0(r6)
    368c:	11400c26 	beq	r2,r5,36c0 <__swbuf_r+0xa8>
    3690:	3080030b 	ldhu	r2,12(r6)
    3694:	1080004c 	andi	r2,r2,1
    3698:	1005003a 	cmpeq	r2,r2,zero
    369c:	10000626 	beq	r2,zero,36b8 <__swbuf_r+0xa0>
    36a0:	8005883a 	mov	r2,r16
    36a4:	dfc00317 	ldw	ra,12(sp)
    36a8:	dc400217 	ldw	r17,8(sp)
    36ac:	dc000117 	ldw	r16,4(sp)
    36b0:	dec00404 	addi	sp,sp,16
    36b4:	f800283a 	ret
    36b8:	00800284 	movi	r2,10
    36bc:	80bff81e 	bne	r16,r2,36a0 <__swbuf_r+0x88>
    36c0:	8809883a 	mov	r4,r17
    36c4:	300b883a 	mov	r5,r6
    36c8:	0003a540 	call	3a54 <_fflush_r>
    36cc:	103ff426 	beq	r2,zero,36a0 <__swbuf_r+0x88>
    36d0:	043fffc4 	movi	r16,-1
    36d4:	003ff206 	br	36a0 <__swbuf_r+0x88>
    36d8:	300b883a 	mov	r5,r6
    36dc:	8809883a 	mov	r4,r17
    36e0:	d9800015 	stw	r6,0(sp)
    36e4:	00037640 	call	3764 <__swsetup_r>
    36e8:	d9800017 	ldw	r6,0(sp)
    36ec:	1000061e 	bne	r2,zero,3708 <__swbuf_r+0xf0>
    36f0:	30c00417 	ldw	r3,16(r6)
    36f4:	003fd806 	br	3658 <__swbuf_r+0x40>
    36f8:	d9800015 	stw	r6,0(sp)
    36fc:	0003cec0 	call	3cec <__sinit>
    3700:	d9800017 	ldw	r6,0(sp)
    3704:	003fcd06 	br	363c <__swbuf_r+0x24>
    3708:	3080030b 	ldhu	r2,12(r6)
    370c:	00c00244 	movi	r3,9
    3710:	043fffc4 	movi	r16,-1
    3714:	10801014 	ori	r2,r2,64
    3718:	3080030d 	sth	r2,12(r6)
    371c:	88c00015 	stw	r3,0(r17)
    3720:	003fdf06 	br	36a0 <__swbuf_r+0x88>
    3724:	300b883a 	mov	r5,r6
    3728:	8809883a 	mov	r4,r17
    372c:	d9800015 	stw	r6,0(sp)
    3730:	0003a540 	call	3a54 <_fflush_r>
    3734:	d9800017 	ldw	r6,0(sp)
    3738:	103fe51e 	bne	r2,zero,36d0 <__swbuf_r+0xb8>
    373c:	31000017 	ldw	r4,0(r6)
    3740:	01400044 	movi	r5,1
    3744:	003fc906 	br	366c <__swbuf_r+0x54>

00003748 <__swbuf>:
    3748:	018000f4 	movhi	r6,3
    374c:	31b69604 	addi	r6,r6,-9640
    3750:	2007883a 	mov	r3,r4
    3754:	31000017 	ldw	r4,0(r6)
    3758:	280d883a 	mov	r6,r5
    375c:	180b883a 	mov	r5,r3
    3760:	00036181 	jmpi	3618 <__swbuf_r>

00003764 <__swsetup_r>:
    3764:	008000f4 	movhi	r2,3
    3768:	10b69604 	addi	r2,r2,-9640
    376c:	10c00017 	ldw	r3,0(r2)
    3770:	defffd04 	addi	sp,sp,-12
    3774:	dc400115 	stw	r17,4(sp)
    3778:	dc000015 	stw	r16,0(sp)
    377c:	dfc00215 	stw	ra,8(sp)
    3780:	2023883a 	mov	r17,r4
    3784:	2821883a 	mov	r16,r5
    3788:	18000226 	beq	r3,zero,3794 <__swsetup_r+0x30>
    378c:	18800e17 	ldw	r2,56(r3)
    3790:	10001f26 	beq	r2,zero,3810 <__swsetup_r+0xac>
    3794:	8100030b 	ldhu	r4,12(r16)
    3798:	2080020c 	andi	r2,r4,8
    379c:	10002826 	beq	r2,zero,3840 <__swsetup_r+0xdc>
    37a0:	81400417 	ldw	r5,16(r16)
    37a4:	28001d26 	beq	r5,zero,381c <__swsetup_r+0xb8>
    37a8:	2080004c 	andi	r2,r4,1
    37ac:	1005003a 	cmpeq	r2,r2,zero
    37b0:	10000b26 	beq	r2,zero,37e0 <__swsetup_r+0x7c>
    37b4:	2080008c 	andi	r2,r4,2
    37b8:	10001226 	beq	r2,zero,3804 <__swsetup_r+0xa0>
    37bc:	0005883a 	mov	r2,zero
    37c0:	80800215 	stw	r2,8(r16)
    37c4:	28000b26 	beq	r5,zero,37f4 <__swsetup_r+0x90>
    37c8:	0005883a 	mov	r2,zero
    37cc:	dfc00217 	ldw	ra,8(sp)
    37d0:	dc400117 	ldw	r17,4(sp)
    37d4:	dc000017 	ldw	r16,0(sp)
    37d8:	dec00304 	addi	sp,sp,12
    37dc:	f800283a 	ret
    37e0:	80800517 	ldw	r2,20(r16)
    37e4:	80000215 	stw	zero,8(r16)
    37e8:	0085c83a 	sub	r2,zero,r2
    37ec:	80800615 	stw	r2,24(r16)
    37f0:	283ff51e 	bne	r5,zero,37c8 <__swsetup_r+0x64>
    37f4:	2080200c 	andi	r2,r4,128
    37f8:	103ff326 	beq	r2,zero,37c8 <__swsetup_r+0x64>
    37fc:	00bfffc4 	movi	r2,-1
    3800:	003ff206 	br	37cc <__swsetup_r+0x68>
    3804:	80800517 	ldw	r2,20(r16)
    3808:	80800215 	stw	r2,8(r16)
    380c:	003fed06 	br	37c4 <__swsetup_r+0x60>
    3810:	1809883a 	mov	r4,r3
    3814:	0003cec0 	call	3cec <__sinit>
    3818:	003fde06 	br	3794 <__swsetup_r+0x30>
    381c:	20c0a00c 	andi	r3,r4,640
    3820:	00808004 	movi	r2,512
    3824:	18bfe026 	beq	r3,r2,37a8 <__swsetup_r+0x44>
    3828:	8809883a 	mov	r4,r17
    382c:	800b883a 	mov	r5,r16
    3830:	00045040 	call	4504 <__smakebuf_r>
    3834:	8100030b 	ldhu	r4,12(r16)
    3838:	81400417 	ldw	r5,16(r16)
    383c:	003fda06 	br	37a8 <__swsetup_r+0x44>
    3840:	2080040c 	andi	r2,r4,16
    3844:	103fed26 	beq	r2,zero,37fc <__swsetup_r+0x98>
    3848:	2080010c 	andi	r2,r4,4
    384c:	10001226 	beq	r2,zero,3898 <__swsetup_r+0x134>
    3850:	81400c17 	ldw	r5,48(r16)
    3854:	28000526 	beq	r5,zero,386c <__swsetup_r+0x108>
    3858:	80801004 	addi	r2,r16,64
    385c:	28800226 	beq	r5,r2,3868 <__swsetup_r+0x104>
    3860:	8809883a 	mov	r4,r17
    3864:	00040700 	call	4070 <_free_r>
    3868:	80000c15 	stw	zero,48(r16)
    386c:	8080030b 	ldhu	r2,12(r16)
    3870:	81400417 	ldw	r5,16(r16)
    3874:	80000115 	stw	zero,4(r16)
    3878:	10bff6cc 	andi	r2,r2,65499
    387c:	8080030d 	sth	r2,12(r16)
    3880:	81400015 	stw	r5,0(r16)
    3884:	8080030b 	ldhu	r2,12(r16)
    3888:	10800214 	ori	r2,r2,8
    388c:	113fffcc 	andi	r4,r2,65535
    3890:	8080030d 	sth	r2,12(r16)
    3894:	003fc306 	br	37a4 <__swsetup_r+0x40>
    3898:	81400417 	ldw	r5,16(r16)
    389c:	003ff906 	br	3884 <__swsetup_r+0x120>

000038a0 <register_fini>:
    38a0:	f800283a 	ret

000038a4 <__call_exitprocs>:
    38a4:	008000f4 	movhi	r2,3
    38a8:	10b69704 	addi	r2,r2,-9636
    38ac:	10800017 	ldw	r2,0(r2)
    38b0:	defff304 	addi	sp,sp,-52
    38b4:	df000b15 	stw	fp,44(sp)
    38b8:	d8800115 	stw	r2,4(sp)
    38bc:	00800034 	movhi	r2,0
    38c0:	10800004 	addi	r2,r2,0
    38c4:	1005003a 	cmpeq	r2,r2,zero
    38c8:	d8800215 	stw	r2,8(sp)
    38cc:	d8800117 	ldw	r2,4(sp)
    38d0:	dd400815 	stw	r21,32(sp)
    38d4:	dd000715 	stw	r20,28(sp)
    38d8:	10805204 	addi	r2,r2,328
    38dc:	dfc00c15 	stw	ra,48(sp)
    38e0:	ddc00a15 	stw	r23,40(sp)
    38e4:	dd800915 	stw	r22,36(sp)
    38e8:	dcc00615 	stw	r19,24(sp)
    38ec:	dc800515 	stw	r18,20(sp)
    38f0:	dc400415 	stw	r17,16(sp)
    38f4:	dc000315 	stw	r16,12(sp)
    38f8:	282b883a 	mov	r21,r5
    38fc:	2039883a 	mov	fp,r4
    3900:	d8800015 	stw	r2,0(sp)
    3904:	2829003a 	cmpeq	r20,r5,zero
    3908:	d8800117 	ldw	r2,4(sp)
    390c:	14405217 	ldw	r17,328(r2)
    3910:	88001026 	beq	r17,zero,3954 <__call_exitprocs+0xb0>
    3914:	ddc00017 	ldw	r23,0(sp)
    3918:	88800117 	ldw	r2,4(r17)
    391c:	8c802204 	addi	r18,r17,136
    3920:	143fffc4 	addi	r16,r2,-1
    3924:	80000916 	blt	r16,zero,394c <__call_exitprocs+0xa8>
    3928:	05bfffc4 	movi	r22,-1
    392c:	a000151e 	bne	r20,zero,3984 <__call_exitprocs+0xe0>
    3930:	8409883a 	add	r4,r16,r16
    3934:	2105883a 	add	r2,r4,r4
    3938:	1485883a 	add	r2,r2,r18
    393c:	10c02017 	ldw	r3,128(r2)
    3940:	a8c01126 	beq	r21,r3,3988 <__call_exitprocs+0xe4>
    3944:	843fffc4 	addi	r16,r16,-1
    3948:	85bff81e 	bne	r16,r22,392c <__call_exitprocs+0x88>
    394c:	d8800217 	ldw	r2,8(sp)
    3950:	10003126 	beq	r2,zero,3a18 <__call_exitprocs+0x174>
    3954:	dfc00c17 	ldw	ra,48(sp)
    3958:	df000b17 	ldw	fp,44(sp)
    395c:	ddc00a17 	ldw	r23,40(sp)
    3960:	dd800917 	ldw	r22,36(sp)
    3964:	dd400817 	ldw	r21,32(sp)
    3968:	dd000717 	ldw	r20,28(sp)
    396c:	dcc00617 	ldw	r19,24(sp)
    3970:	dc800517 	ldw	r18,20(sp)
    3974:	dc400417 	ldw	r17,16(sp)
    3978:	dc000317 	ldw	r16,12(sp)
    397c:	dec00d04 	addi	sp,sp,52
    3980:	f800283a 	ret
    3984:	8409883a 	add	r4,r16,r16
    3988:	88c00117 	ldw	r3,4(r17)
    398c:	2105883a 	add	r2,r4,r4
    3990:	1445883a 	add	r2,r2,r17
    3994:	18ffffc4 	addi	r3,r3,-1
    3998:	11800217 	ldw	r6,8(r2)
    399c:	1c001526 	beq	r3,r16,39f4 <__call_exitprocs+0x150>
    39a0:	10000215 	stw	zero,8(r2)
    39a4:	303fe726 	beq	r6,zero,3944 <__call_exitprocs+0xa0>
    39a8:	00c00044 	movi	r3,1
    39ac:	1c06983a 	sll	r3,r3,r16
    39b0:	90804017 	ldw	r2,256(r18)
    39b4:	8cc00117 	ldw	r19,4(r17)
    39b8:	1884703a 	and	r2,r3,r2
    39bc:	10001426 	beq	r2,zero,3a10 <__call_exitprocs+0x16c>
    39c0:	90804117 	ldw	r2,260(r18)
    39c4:	1884703a 	and	r2,r3,r2
    39c8:	10000c1e 	bne	r2,zero,39fc <__call_exitprocs+0x158>
    39cc:	2105883a 	add	r2,r4,r4
    39d0:	1485883a 	add	r2,r2,r18
    39d4:	11400017 	ldw	r5,0(r2)
    39d8:	e009883a 	mov	r4,fp
    39dc:	303ee83a 	callr	r6
    39e0:	88800117 	ldw	r2,4(r17)
    39e4:	98bfc81e 	bne	r19,r2,3908 <__call_exitprocs+0x64>
    39e8:	b8800017 	ldw	r2,0(r23)
    39ec:	147fd526 	beq	r2,r17,3944 <__call_exitprocs+0xa0>
    39f0:	003fc506 	br	3908 <__call_exitprocs+0x64>
    39f4:	8c000115 	stw	r16,4(r17)
    39f8:	003fea06 	br	39a4 <__call_exitprocs+0x100>
    39fc:	2105883a 	add	r2,r4,r4
    3a00:	1485883a 	add	r2,r2,r18
    3a04:	11000017 	ldw	r4,0(r2)
    3a08:	303ee83a 	callr	r6
    3a0c:	003ff406 	br	39e0 <__call_exitprocs+0x13c>
    3a10:	303ee83a 	callr	r6
    3a14:	003ff206 	br	39e0 <__call_exitprocs+0x13c>
    3a18:	88800117 	ldw	r2,4(r17)
    3a1c:	1000081e 	bne	r2,zero,3a40 <__call_exitprocs+0x19c>
    3a20:	89000017 	ldw	r4,0(r17)
    3a24:	20000726 	beq	r4,zero,3a44 <__call_exitprocs+0x1a0>
    3a28:	b9000015 	stw	r4,0(r23)
    3a2c:	8809883a 	mov	r4,r17
    3a30:	00000000 	call	0 <__reset>
    3a34:	bc400017 	ldw	r17,0(r23)
    3a38:	883fb71e 	bne	r17,zero,3918 <__call_exitprocs+0x74>
    3a3c:	003fc506 	br	3954 <__call_exitprocs+0xb0>
    3a40:	89000017 	ldw	r4,0(r17)
    3a44:	882f883a 	mov	r23,r17
    3a48:	2023883a 	mov	r17,r4
    3a4c:	883fb21e 	bne	r17,zero,3918 <__call_exitprocs+0x74>
    3a50:	003fc006 	br	3954 <__call_exitprocs+0xb0>

00003a54 <_fflush_r>:
    3a54:	defffb04 	addi	sp,sp,-20
    3a58:	dcc00315 	stw	r19,12(sp)
    3a5c:	dc800215 	stw	r18,8(sp)
    3a60:	dfc00415 	stw	ra,16(sp)
    3a64:	dc400115 	stw	r17,4(sp)
    3a68:	dc000015 	stw	r16,0(sp)
    3a6c:	2027883a 	mov	r19,r4
    3a70:	2825883a 	mov	r18,r5
    3a74:	20000226 	beq	r4,zero,3a80 <_fflush_r+0x2c>
    3a78:	20800e17 	ldw	r2,56(r4)
    3a7c:	10005626 	beq	r2,zero,3bd8 <_fflush_r+0x184>
    3a80:	9100030b 	ldhu	r4,12(r18)
    3a84:	20ffffcc 	andi	r3,r4,65535
    3a88:	18e0001c 	xori	r3,r3,32768
    3a8c:	18e00004 	addi	r3,r3,-32768
    3a90:	1880020c 	andi	r2,r3,8
    3a94:	1000261e 	bne	r2,zero,3b30 <_fflush_r+0xdc>
    3a98:	90c00117 	ldw	r3,4(r18)
    3a9c:	20820014 	ori	r2,r4,2048
    3aa0:	9080030d 	sth	r2,12(r18)
    3aa4:	1009883a 	mov	r4,r2
    3aa8:	00c0400e 	bge	zero,r3,3bac <_fflush_r+0x158>
    3aac:	92000a17 	ldw	r8,40(r18)
    3ab0:	40004026 	beq	r8,zero,3bb4 <_fflush_r+0x160>
    3ab4:	2084000c 	andi	r2,r4,4096
    3ab8:	10005326 	beq	r2,zero,3c08 <_fflush_r+0x1b4>
    3abc:	94001417 	ldw	r16,80(r18)
    3ac0:	9080030b 	ldhu	r2,12(r18)
    3ac4:	1080010c 	andi	r2,r2,4
    3ac8:	1000481e 	bne	r2,zero,3bec <_fflush_r+0x198>
    3acc:	91400717 	ldw	r5,28(r18)
    3ad0:	9809883a 	mov	r4,r19
    3ad4:	800d883a 	mov	r6,r16
    3ad8:	000f883a 	mov	r7,zero
    3adc:	403ee83a 	callr	r8
    3ae0:	8080261e 	bne	r16,r2,3b7c <_fflush_r+0x128>
    3ae4:	9080030b 	ldhu	r2,12(r18)
    3ae8:	91000417 	ldw	r4,16(r18)
    3aec:	90000115 	stw	zero,4(r18)
    3af0:	10bdffcc 	andi	r2,r2,63487
    3af4:	10ffffcc 	andi	r3,r2,65535
    3af8:	18c4000c 	andi	r3,r3,4096
    3afc:	9080030d 	sth	r2,12(r18)
    3b00:	91000015 	stw	r4,0(r18)
    3b04:	18002b26 	beq	r3,zero,3bb4 <_fflush_r+0x160>
    3b08:	0007883a 	mov	r3,zero
    3b0c:	1805883a 	mov	r2,r3
    3b10:	94001415 	stw	r16,80(r18)
    3b14:	dfc00417 	ldw	ra,16(sp)
    3b18:	dcc00317 	ldw	r19,12(sp)
    3b1c:	dc800217 	ldw	r18,8(sp)
    3b20:	dc400117 	ldw	r17,4(sp)
    3b24:	dc000017 	ldw	r16,0(sp)
    3b28:	dec00504 	addi	sp,sp,20
    3b2c:	f800283a 	ret
    3b30:	94400417 	ldw	r17,16(r18)
    3b34:	88001f26 	beq	r17,zero,3bb4 <_fflush_r+0x160>
    3b38:	90800017 	ldw	r2,0(r18)
    3b3c:	18c000cc 	andi	r3,r3,3
    3b40:	94400015 	stw	r17,0(r18)
    3b44:	1461c83a 	sub	r16,r2,r17
    3b48:	18002526 	beq	r3,zero,3be0 <_fflush_r+0x18c>
    3b4c:	0005883a 	mov	r2,zero
    3b50:	90800215 	stw	r2,8(r18)
    3b54:	0400170e 	bge	zero,r16,3bb4 <_fflush_r+0x160>
    3b58:	90c00917 	ldw	r3,36(r18)
    3b5c:	91400717 	ldw	r5,28(r18)
    3b60:	880d883a 	mov	r6,r17
    3b64:	800f883a 	mov	r7,r16
    3b68:	9809883a 	mov	r4,r19
    3b6c:	183ee83a 	callr	r3
    3b70:	88a3883a 	add	r17,r17,r2
    3b74:	80a1c83a 	sub	r16,r16,r2
    3b78:	00bff616 	blt	zero,r2,3b54 <_fflush_r+0x100>
    3b7c:	9080030b 	ldhu	r2,12(r18)
    3b80:	00ffffc4 	movi	r3,-1
    3b84:	10801014 	ori	r2,r2,64
    3b88:	9080030d 	sth	r2,12(r18)
    3b8c:	1805883a 	mov	r2,r3
    3b90:	dfc00417 	ldw	ra,16(sp)
    3b94:	dcc00317 	ldw	r19,12(sp)
    3b98:	dc800217 	ldw	r18,8(sp)
    3b9c:	dc400117 	ldw	r17,4(sp)
    3ba0:	dc000017 	ldw	r16,0(sp)
    3ba4:	dec00504 	addi	sp,sp,20
    3ba8:	f800283a 	ret
    3bac:	90800f17 	ldw	r2,60(r18)
    3bb0:	00bfbe16 	blt	zero,r2,3aac <_fflush_r+0x58>
    3bb4:	0007883a 	mov	r3,zero
    3bb8:	1805883a 	mov	r2,r3
    3bbc:	dfc00417 	ldw	ra,16(sp)
    3bc0:	dcc00317 	ldw	r19,12(sp)
    3bc4:	dc800217 	ldw	r18,8(sp)
    3bc8:	dc400117 	ldw	r17,4(sp)
    3bcc:	dc000017 	ldw	r16,0(sp)
    3bd0:	dec00504 	addi	sp,sp,20
    3bd4:	f800283a 	ret
    3bd8:	0003cec0 	call	3cec <__sinit>
    3bdc:	003fa806 	br	3a80 <_fflush_r+0x2c>
    3be0:	90800517 	ldw	r2,20(r18)
    3be4:	90800215 	stw	r2,8(r18)
    3be8:	003fda06 	br	3b54 <_fflush_r+0x100>
    3bec:	90800117 	ldw	r2,4(r18)
    3bf0:	90c00c17 	ldw	r3,48(r18)
    3bf4:	80a1c83a 	sub	r16,r16,r2
    3bf8:	183fb426 	beq	r3,zero,3acc <_fflush_r+0x78>
    3bfc:	90800f17 	ldw	r2,60(r18)
    3c00:	80a1c83a 	sub	r16,r16,r2
    3c04:	003fb106 	br	3acc <_fflush_r+0x78>
    3c08:	91400717 	ldw	r5,28(r18)
    3c0c:	9809883a 	mov	r4,r19
    3c10:	000d883a 	mov	r6,zero
    3c14:	01c00044 	movi	r7,1
    3c18:	403ee83a 	callr	r8
    3c1c:	1021883a 	mov	r16,r2
    3c20:	00bfffc4 	movi	r2,-1
    3c24:	80800226 	beq	r16,r2,3c30 <_fflush_r+0x1dc>
    3c28:	92000a17 	ldw	r8,40(r18)
    3c2c:	003fa406 	br	3ac0 <_fflush_r+0x6c>
    3c30:	98c00017 	ldw	r3,0(r19)
    3c34:	00800744 	movi	r2,29
    3c38:	18bfde26 	beq	r3,r2,3bb4 <_fflush_r+0x160>
    3c3c:	9080030b 	ldhu	r2,12(r18)
    3c40:	8007883a 	mov	r3,r16
    3c44:	10801014 	ori	r2,r2,64
    3c48:	9080030d 	sth	r2,12(r18)
    3c4c:	003fcf06 	br	3b8c <_fflush_r+0x138>

00003c50 <fflush>:
    3c50:	01400034 	movhi	r5,0
    3c54:	294e9504 	addi	r5,r5,14932
    3c58:	2007883a 	mov	r3,r4
    3c5c:	20000526 	beq	r4,zero,3c74 <fflush+0x24>
    3c60:	008000f4 	movhi	r2,3
    3c64:	10b69604 	addi	r2,r2,-9640
    3c68:	11000017 	ldw	r4,0(r2)
    3c6c:	180b883a 	mov	r5,r3
    3c70:	0003a541 	jmpi	3a54 <_fflush_r>
    3c74:	008000f4 	movhi	r2,3
    3c78:	10b69704 	addi	r2,r2,-9636
    3c7c:	11000017 	ldw	r4,0(r2)
    3c80:	00043841 	jmpi	4384 <_fwalk_reent>

00003c84 <std>:
    3c84:	00800034 	movhi	r2,0
    3c88:	1093b804 	addi	r2,r2,20192
    3c8c:	20800b15 	stw	r2,44(r4)
    3c90:	00800034 	movhi	r2,0
    3c94:	1093f304 	addi	r2,r2,20428
    3c98:	20800815 	stw	r2,32(r4)
    3c9c:	00c00034 	movhi	r3,0
    3ca0:	18d3d404 	addi	r3,r3,20304
    3ca4:	00800034 	movhi	r2,0
    3ca8:	1093ba04 	addi	r2,r2,20200
    3cac:	2140030d 	sth	r5,12(r4)
    3cb0:	2180038d 	sth	r6,14(r4)
    3cb4:	20c00915 	stw	r3,36(r4)
    3cb8:	20800a15 	stw	r2,40(r4)
    3cbc:	20000015 	stw	zero,0(r4)
    3cc0:	20000115 	stw	zero,4(r4)
    3cc4:	20000215 	stw	zero,8(r4)
    3cc8:	20000415 	stw	zero,16(r4)
    3ccc:	20000515 	stw	zero,20(r4)
    3cd0:	20000615 	stw	zero,24(r4)
    3cd4:	21000715 	stw	r4,28(r4)
    3cd8:	f800283a 	ret

00003cdc <__sfp_lock_acquire>:
    3cdc:	f800283a 	ret

00003ce0 <__sfp_lock_release>:
    3ce0:	f800283a 	ret

00003ce4 <__sinit_lock_acquire>:
    3ce4:	f800283a 	ret

00003ce8 <__sinit_lock_release>:
    3ce8:	f800283a 	ret

00003cec <__sinit>:
    3cec:	20800e17 	ldw	r2,56(r4)
    3cf0:	defffd04 	addi	sp,sp,-12
    3cf4:	dc400115 	stw	r17,4(sp)
    3cf8:	dc000015 	stw	r16,0(sp)
    3cfc:	dfc00215 	stw	ra,8(sp)
    3d00:	04400044 	movi	r17,1
    3d04:	01400104 	movi	r5,4
    3d08:	000d883a 	mov	r6,zero
    3d0c:	2021883a 	mov	r16,r4
    3d10:	2200bb04 	addi	r8,r4,748
    3d14:	200f883a 	mov	r7,r4
    3d18:	10000526 	beq	r2,zero,3d30 <__sinit+0x44>
    3d1c:	dfc00217 	ldw	ra,8(sp)
    3d20:	dc400117 	ldw	r17,4(sp)
    3d24:	dc000017 	ldw	r16,0(sp)
    3d28:	dec00304 	addi	sp,sp,12
    3d2c:	f800283a 	ret
    3d30:	21000117 	ldw	r4,4(r4)
    3d34:	00800034 	movhi	r2,0
    3d38:	108f7404 	addi	r2,r2,15824
    3d3c:	00c000c4 	movi	r3,3
    3d40:	80800f15 	stw	r2,60(r16)
    3d44:	80c0b915 	stw	r3,740(r16)
    3d48:	8200ba15 	stw	r8,744(r16)
    3d4c:	84400e15 	stw	r17,56(r16)
    3d50:	8000b815 	stw	zero,736(r16)
    3d54:	0003c840 	call	3c84 <std>
    3d58:	81000217 	ldw	r4,8(r16)
    3d5c:	880d883a 	mov	r6,r17
    3d60:	800f883a 	mov	r7,r16
    3d64:	01400284 	movi	r5,10
    3d68:	0003c840 	call	3c84 <std>
    3d6c:	81000317 	ldw	r4,12(r16)
    3d70:	800f883a 	mov	r7,r16
    3d74:	01400484 	movi	r5,18
    3d78:	01800084 	movi	r6,2
    3d7c:	dfc00217 	ldw	ra,8(sp)
    3d80:	dc400117 	ldw	r17,4(sp)
    3d84:	dc000017 	ldw	r16,0(sp)
    3d88:	dec00304 	addi	sp,sp,12
    3d8c:	0003c841 	jmpi	3c84 <std>

00003d90 <__fp_lock>:
    3d90:	0005883a 	mov	r2,zero
    3d94:	f800283a 	ret

00003d98 <__fp_unlock>:
    3d98:	0005883a 	mov	r2,zero
    3d9c:	f800283a 	ret

00003da0 <__fp_unlock_all>:
    3da0:	008000f4 	movhi	r2,3
    3da4:	10b69604 	addi	r2,r2,-9640
    3da8:	11000017 	ldw	r4,0(r2)
    3dac:	01400034 	movhi	r5,0
    3db0:	294f6604 	addi	r5,r5,15768
    3db4:	000444c1 	jmpi	444c <_fwalk>

00003db8 <__fp_lock_all>:
    3db8:	008000f4 	movhi	r2,3
    3dbc:	10b69604 	addi	r2,r2,-9640
    3dc0:	11000017 	ldw	r4,0(r2)
    3dc4:	01400034 	movhi	r5,0
    3dc8:	294f6404 	addi	r5,r5,15760
    3dcc:	000444c1 	jmpi	444c <_fwalk>

00003dd0 <_cleanup_r>:
    3dd0:	01400034 	movhi	r5,0
    3dd4:	29548904 	addi	r5,r5,21028
    3dd8:	000444c1 	jmpi	444c <_fwalk>

00003ddc <_cleanup>:
    3ddc:	008000f4 	movhi	r2,3
    3de0:	10b69704 	addi	r2,r2,-9636
    3de4:	11000017 	ldw	r4,0(r2)
    3de8:	0003dd01 	jmpi	3dd0 <_cleanup_r>

00003dec <__sfmoreglue>:
    3dec:	defffc04 	addi	sp,sp,-16
    3df0:	dc400115 	stw	r17,4(sp)
    3df4:	2c401724 	muli	r17,r5,92
    3df8:	dc800215 	stw	r18,8(sp)
    3dfc:	2825883a 	mov	r18,r5
    3e00:	89400304 	addi	r5,r17,12
    3e04:	dc000015 	stw	r16,0(sp)
    3e08:	dfc00315 	stw	ra,12(sp)
    3e0c:	00046980 	call	4698 <_malloc_r>
    3e10:	0021883a 	mov	r16,zero
    3e14:	880d883a 	mov	r6,r17
    3e18:	000b883a 	mov	r5,zero
    3e1c:	10000626 	beq	r2,zero,3e38 <__sfmoreglue+0x4c>
    3e20:	11000304 	addi	r4,r2,12
    3e24:	14800115 	stw	r18,4(r2)
    3e28:	10000015 	stw	zero,0(r2)
    3e2c:	11000215 	stw	r4,8(r2)
    3e30:	1021883a 	mov	r16,r2
    3e34:	0004dd80 	call	4dd8 <memset>
    3e38:	8005883a 	mov	r2,r16
    3e3c:	dfc00317 	ldw	ra,12(sp)
    3e40:	dc800217 	ldw	r18,8(sp)
    3e44:	dc400117 	ldw	r17,4(sp)
    3e48:	dc000017 	ldw	r16,0(sp)
    3e4c:	dec00404 	addi	sp,sp,16
    3e50:	f800283a 	ret

00003e54 <__sfp>:
    3e54:	defffd04 	addi	sp,sp,-12
    3e58:	008000f4 	movhi	r2,3
    3e5c:	10b69704 	addi	r2,r2,-9636
    3e60:	dc000015 	stw	r16,0(sp)
    3e64:	14000017 	ldw	r16,0(r2)
    3e68:	dc400115 	stw	r17,4(sp)
    3e6c:	dfc00215 	stw	ra,8(sp)
    3e70:	80800e17 	ldw	r2,56(r16)
    3e74:	2023883a 	mov	r17,r4
    3e78:	10002626 	beq	r2,zero,3f14 <__sfp+0xc0>
    3e7c:	8400b804 	addi	r16,r16,736
    3e80:	80800117 	ldw	r2,4(r16)
    3e84:	81000217 	ldw	r4,8(r16)
    3e88:	10ffffc4 	addi	r3,r2,-1
    3e8c:	18000916 	blt	r3,zero,3eb4 <__sfp+0x60>
    3e90:	2080030f 	ldh	r2,12(r4)
    3e94:	10000b26 	beq	r2,zero,3ec4 <__sfp+0x70>
    3e98:	017fffc4 	movi	r5,-1
    3e9c:	00000206 	br	3ea8 <__sfp+0x54>
    3ea0:	2080030f 	ldh	r2,12(r4)
    3ea4:	10000726 	beq	r2,zero,3ec4 <__sfp+0x70>
    3ea8:	18ffffc4 	addi	r3,r3,-1
    3eac:	21001704 	addi	r4,r4,92
    3eb0:	197ffb1e 	bne	r3,r5,3ea0 <__sfp+0x4c>
    3eb4:	80800017 	ldw	r2,0(r16)
    3eb8:	10001926 	beq	r2,zero,3f20 <__sfp+0xcc>
    3ebc:	1021883a 	mov	r16,r2
    3ec0:	003fef06 	br	3e80 <__sfp+0x2c>
    3ec4:	00bfffc4 	movi	r2,-1
    3ec8:	00c00044 	movi	r3,1
    3ecc:	2080038d 	sth	r2,14(r4)
    3ed0:	20c0030d 	sth	r3,12(r4)
    3ed4:	20000015 	stw	zero,0(r4)
    3ed8:	20000215 	stw	zero,8(r4)
    3edc:	20000115 	stw	zero,4(r4)
    3ee0:	20000415 	stw	zero,16(r4)
    3ee4:	20000515 	stw	zero,20(r4)
    3ee8:	20000615 	stw	zero,24(r4)
    3eec:	20000c15 	stw	zero,48(r4)
    3ef0:	20000d15 	stw	zero,52(r4)
    3ef4:	20001115 	stw	zero,68(r4)
    3ef8:	20001215 	stw	zero,72(r4)
    3efc:	2005883a 	mov	r2,r4
    3f00:	dfc00217 	ldw	ra,8(sp)
    3f04:	dc400117 	ldw	r17,4(sp)
    3f08:	dc000017 	ldw	r16,0(sp)
    3f0c:	dec00304 	addi	sp,sp,12
    3f10:	f800283a 	ret
    3f14:	8009883a 	mov	r4,r16
    3f18:	0003cec0 	call	3cec <__sinit>
    3f1c:	003fd706 	br	3e7c <__sfp+0x28>
    3f20:	8809883a 	mov	r4,r17
    3f24:	01400104 	movi	r5,4
    3f28:	0003dec0 	call	3dec <__sfmoreglue>
    3f2c:	80800015 	stw	r2,0(r16)
    3f30:	103fe21e 	bne	r2,zero,3ebc <__sfp+0x68>
    3f34:	00800304 	movi	r2,12
    3f38:	0009883a 	mov	r4,zero
    3f3c:	88800015 	stw	r2,0(r17)
    3f40:	003fee06 	br	3efc <__sfp+0xa8>

00003f44 <_malloc_trim_r>:
    3f44:	defffb04 	addi	sp,sp,-20
    3f48:	dcc00315 	stw	r19,12(sp)
    3f4c:	04c000f4 	movhi	r19,3
    3f50:	9cf58604 	addi	r19,r19,-10728
    3f54:	dc800215 	stw	r18,8(sp)
    3f58:	dc400115 	stw	r17,4(sp)
    3f5c:	dc000015 	stw	r16,0(sp)
    3f60:	2823883a 	mov	r17,r5
    3f64:	2025883a 	mov	r18,r4
    3f68:	dfc00415 	stw	ra,16(sp)
    3f6c:	00055bc0 	call	55bc <__malloc_lock>
    3f70:	98800217 	ldw	r2,8(r19)
    3f74:	9009883a 	mov	r4,r18
    3f78:	000b883a 	mov	r5,zero
    3f7c:	10c00117 	ldw	r3,4(r2)
    3f80:	00bfff04 	movi	r2,-4
    3f84:	18a0703a 	and	r16,r3,r2
    3f88:	8463c83a 	sub	r17,r16,r17
    3f8c:	8c43fbc4 	addi	r17,r17,4079
    3f90:	8822d33a 	srli	r17,r17,12
    3f94:	0083ffc4 	movi	r2,4095
    3f98:	8c7fffc4 	addi	r17,r17,-1
    3f9c:	8822933a 	slli	r17,r17,12
    3fa0:	1440060e 	bge	r2,r17,3fbc <_malloc_trim_r+0x78>
    3fa4:	0004e700 	call	4e70 <_sbrk_r>
    3fa8:	98c00217 	ldw	r3,8(r19)
    3fac:	9009883a 	mov	r4,r18
    3fb0:	044bc83a 	sub	r5,zero,r17
    3fb4:	80c7883a 	add	r3,r16,r3
    3fb8:	10c00926 	beq	r2,r3,3fe0 <_malloc_trim_r+0x9c>
    3fbc:	00055c00 	call	55c0 <__malloc_unlock>
    3fc0:	0005883a 	mov	r2,zero
    3fc4:	dfc00417 	ldw	ra,16(sp)
    3fc8:	dcc00317 	ldw	r19,12(sp)
    3fcc:	dc800217 	ldw	r18,8(sp)
    3fd0:	dc400117 	ldw	r17,4(sp)
    3fd4:	dc000017 	ldw	r16,0(sp)
    3fd8:	dec00504 	addi	sp,sp,20
    3fdc:	f800283a 	ret
    3fe0:	9009883a 	mov	r4,r18
    3fe4:	0004e700 	call	4e70 <_sbrk_r>
    3fe8:	844dc83a 	sub	r6,r16,r17
    3fec:	00ffffc4 	movi	r3,-1
    3ff0:	9009883a 	mov	r4,r18
    3ff4:	000b883a 	mov	r5,zero
    3ff8:	01c000f4 	movhi	r7,3
    3ffc:	39f6a804 	addi	r7,r7,-9568
    4000:	31800054 	ori	r6,r6,1
    4004:	10c00926 	beq	r2,r3,402c <_malloc_trim_r+0xe8>
    4008:	38800017 	ldw	r2,0(r7)
    400c:	98c00217 	ldw	r3,8(r19)
    4010:	9009883a 	mov	r4,r18
    4014:	1445c83a 	sub	r2,r2,r17
    4018:	38800015 	stw	r2,0(r7)
    401c:	19800115 	stw	r6,4(r3)
    4020:	00055c00 	call	55c0 <__malloc_unlock>
    4024:	00800044 	movi	r2,1
    4028:	003fe606 	br	3fc4 <_malloc_trim_r+0x80>
    402c:	0004e700 	call	4e70 <_sbrk_r>
    4030:	99800217 	ldw	r6,8(r19)
    4034:	100f883a 	mov	r7,r2
    4038:	9009883a 	mov	r4,r18
    403c:	1187c83a 	sub	r3,r2,r6
    4040:	008003c4 	movi	r2,15
    4044:	19400054 	ori	r5,r3,1
    4048:	10ffdc0e 	bge	r2,r3,3fbc <_malloc_trim_r+0x78>
    404c:	008000f4 	movhi	r2,3
    4050:	10b69904 	addi	r2,r2,-9628
    4054:	10c00017 	ldw	r3,0(r2)
    4058:	008000f4 	movhi	r2,3
    405c:	10b6a804 	addi	r2,r2,-9568
    4060:	31400115 	stw	r5,4(r6)
    4064:	38c7c83a 	sub	r3,r7,r3
    4068:	10c00015 	stw	r3,0(r2)
    406c:	003fd306 	br	3fbc <_malloc_trim_r+0x78>

00004070 <_free_r>:
    4070:	defffd04 	addi	sp,sp,-12
    4074:	dc400115 	stw	r17,4(sp)
    4078:	dc000015 	stw	r16,0(sp)
    407c:	dfc00215 	stw	ra,8(sp)
    4080:	2821883a 	mov	r16,r5
    4084:	2023883a 	mov	r17,r4
    4088:	28005a26 	beq	r5,zero,41f4 <_free_r+0x184>
    408c:	00055bc0 	call	55bc <__malloc_lock>
    4090:	823ffe04 	addi	r8,r16,-8
    4094:	41400117 	ldw	r5,4(r8)
    4098:	00bfff84 	movi	r2,-2
    409c:	028000f4 	movhi	r10,3
    40a0:	52b58604 	addi	r10,r10,-10728
    40a4:	288e703a 	and	r7,r5,r2
    40a8:	41cd883a 	add	r6,r8,r7
    40ac:	30c00117 	ldw	r3,4(r6)
    40b0:	51000217 	ldw	r4,8(r10)
    40b4:	00bfff04 	movi	r2,-4
    40b8:	1892703a 	and	r9,r3,r2
    40bc:	5017883a 	mov	r11,r10
    40c0:	31006726 	beq	r6,r4,4260 <_free_r+0x1f0>
    40c4:	2880004c 	andi	r2,r5,1
    40c8:	1005003a 	cmpeq	r2,r2,zero
    40cc:	32400115 	stw	r9,4(r6)
    40d0:	10001a1e 	bne	r2,zero,413c <_free_r+0xcc>
    40d4:	000b883a 	mov	r5,zero
    40d8:	3247883a 	add	r3,r6,r9
    40dc:	18800117 	ldw	r2,4(r3)
    40e0:	1080004c 	andi	r2,r2,1
    40e4:	1000231e 	bne	r2,zero,4174 <_free_r+0x104>
    40e8:	280ac03a 	cmpne	r5,r5,zero
    40ec:	3a4f883a 	add	r7,r7,r9
    40f0:	2800451e 	bne	r5,zero,4208 <_free_r+0x198>
    40f4:	31000217 	ldw	r4,8(r6)
    40f8:	008000f4 	movhi	r2,3
    40fc:	10b58804 	addi	r2,r2,-10720
    4100:	20807b26 	beq	r4,r2,42f0 <_free_r+0x280>
    4104:	30800317 	ldw	r2,12(r6)
    4108:	3a07883a 	add	r3,r7,r8
    410c:	19c00015 	stw	r7,0(r3)
    4110:	11000215 	stw	r4,8(r2)
    4114:	20800315 	stw	r2,12(r4)
    4118:	38800054 	ori	r2,r7,1
    411c:	40800115 	stw	r2,4(r8)
    4120:	28001a26 	beq	r5,zero,418c <_free_r+0x11c>
    4124:	8809883a 	mov	r4,r17
    4128:	dfc00217 	ldw	ra,8(sp)
    412c:	dc400117 	ldw	r17,4(sp)
    4130:	dc000017 	ldw	r16,0(sp)
    4134:	dec00304 	addi	sp,sp,12
    4138:	00055c01 	jmpi	55c0 <__malloc_unlock>
    413c:	80bffe17 	ldw	r2,-8(r16)
    4140:	50c00204 	addi	r3,r10,8
    4144:	4091c83a 	sub	r8,r8,r2
    4148:	41000217 	ldw	r4,8(r8)
    414c:	388f883a 	add	r7,r7,r2
    4150:	20c06126 	beq	r4,r3,42d8 <_free_r+0x268>
    4154:	40800317 	ldw	r2,12(r8)
    4158:	3247883a 	add	r3,r6,r9
    415c:	000b883a 	mov	r5,zero
    4160:	11000215 	stw	r4,8(r2)
    4164:	20800315 	stw	r2,12(r4)
    4168:	18800117 	ldw	r2,4(r3)
    416c:	1080004c 	andi	r2,r2,1
    4170:	103fdd26 	beq	r2,zero,40e8 <_free_r+0x78>
    4174:	38800054 	ori	r2,r7,1
    4178:	3a07883a 	add	r3,r7,r8
    417c:	280ac03a 	cmpne	r5,r5,zero
    4180:	40800115 	stw	r2,4(r8)
    4184:	19c00015 	stw	r7,0(r3)
    4188:	283fe61e 	bne	r5,zero,4124 <_free_r+0xb4>
    418c:	00807fc4 	movi	r2,511
    4190:	11c01f2e 	bgeu	r2,r7,4210 <_free_r+0x1a0>
    4194:	3806d27a 	srli	r3,r7,9
    4198:	1800481e 	bne	r3,zero,42bc <_free_r+0x24c>
    419c:	3804d0fa 	srli	r2,r7,3
    41a0:	100690fa 	slli	r3,r2,3
    41a4:	1acd883a 	add	r6,r3,r11
    41a8:	31400217 	ldw	r5,8(r6)
    41ac:	31405926 	beq	r6,r5,4314 <_free_r+0x2a4>
    41b0:	28800117 	ldw	r2,4(r5)
    41b4:	00ffff04 	movi	r3,-4
    41b8:	10c4703a 	and	r2,r2,r3
    41bc:	3880022e 	bgeu	r7,r2,41c8 <_free_r+0x158>
    41c0:	29400217 	ldw	r5,8(r5)
    41c4:	317ffa1e 	bne	r6,r5,41b0 <_free_r+0x140>
    41c8:	29800317 	ldw	r6,12(r5)
    41cc:	41800315 	stw	r6,12(r8)
    41d0:	41400215 	stw	r5,8(r8)
    41d4:	8809883a 	mov	r4,r17
    41d8:	2a000315 	stw	r8,12(r5)
    41dc:	32000215 	stw	r8,8(r6)
    41e0:	dfc00217 	ldw	ra,8(sp)
    41e4:	dc400117 	ldw	r17,4(sp)
    41e8:	dc000017 	ldw	r16,0(sp)
    41ec:	dec00304 	addi	sp,sp,12
    41f0:	00055c01 	jmpi	55c0 <__malloc_unlock>
    41f4:	dfc00217 	ldw	ra,8(sp)
    41f8:	dc400117 	ldw	r17,4(sp)
    41fc:	dc000017 	ldw	r16,0(sp)
    4200:	dec00304 	addi	sp,sp,12
    4204:	f800283a 	ret
    4208:	31000217 	ldw	r4,8(r6)
    420c:	003fbd06 	br	4104 <_free_r+0x94>
    4210:	3806d0fa 	srli	r3,r7,3
    4214:	00800044 	movi	r2,1
    4218:	51400117 	ldw	r5,4(r10)
    421c:	180890fa 	slli	r4,r3,3
    4220:	1807d0ba 	srai	r3,r3,2
    4224:	22c9883a 	add	r4,r4,r11
    4228:	21800217 	ldw	r6,8(r4)
    422c:	10c4983a 	sll	r2,r2,r3
    4230:	41000315 	stw	r4,12(r8)
    4234:	41800215 	stw	r6,8(r8)
    4238:	288ab03a 	or	r5,r5,r2
    423c:	22000215 	stw	r8,8(r4)
    4240:	8809883a 	mov	r4,r17
    4244:	51400115 	stw	r5,4(r10)
    4248:	32000315 	stw	r8,12(r6)
    424c:	dfc00217 	ldw	ra,8(sp)
    4250:	dc400117 	ldw	r17,4(sp)
    4254:	dc000017 	ldw	r16,0(sp)
    4258:	dec00304 	addi	sp,sp,12
    425c:	00055c01 	jmpi	55c0 <__malloc_unlock>
    4260:	2880004c 	andi	r2,r5,1
    4264:	3a4d883a 	add	r6,r7,r9
    4268:	1000071e 	bne	r2,zero,4288 <_free_r+0x218>
    426c:	80bffe17 	ldw	r2,-8(r16)
    4270:	4091c83a 	sub	r8,r8,r2
    4274:	41000317 	ldw	r4,12(r8)
    4278:	40c00217 	ldw	r3,8(r8)
    427c:	308d883a 	add	r6,r6,r2
    4280:	20c00215 	stw	r3,8(r4)
    4284:	19000315 	stw	r4,12(r3)
    4288:	008000f4 	movhi	r2,3
    428c:	10b69804 	addi	r2,r2,-9632
    4290:	11000017 	ldw	r4,0(r2)
    4294:	30c00054 	ori	r3,r6,1
    4298:	52000215 	stw	r8,8(r10)
    429c:	40c00115 	stw	r3,4(r8)
    42a0:	313fa036 	bltu	r6,r4,4124 <_free_r+0xb4>
    42a4:	008000f4 	movhi	r2,3
    42a8:	10b6a504 	addi	r2,r2,-9580
    42ac:	11400017 	ldw	r5,0(r2)
    42b0:	8809883a 	mov	r4,r17
    42b4:	0003f440 	call	3f44 <_malloc_trim_r>
    42b8:	003f9a06 	br	4124 <_free_r+0xb4>
    42bc:	00800104 	movi	r2,4
    42c0:	10c0072e 	bgeu	r2,r3,42e0 <_free_r+0x270>
    42c4:	00800504 	movi	r2,20
    42c8:	10c01936 	bltu	r2,r3,4330 <_free_r+0x2c0>
    42cc:	188016c4 	addi	r2,r3,91
    42d0:	100690fa 	slli	r3,r2,3
    42d4:	003fb306 	br	41a4 <_free_r+0x134>
    42d8:	01400044 	movi	r5,1
    42dc:	003f7e06 	br	40d8 <_free_r+0x68>
    42e0:	3804d1ba 	srli	r2,r7,6
    42e4:	10800e04 	addi	r2,r2,56
    42e8:	100690fa 	slli	r3,r2,3
    42ec:	003fad06 	br	41a4 <_free_r+0x134>
    42f0:	22000315 	stw	r8,12(r4)
    42f4:	22000215 	stw	r8,8(r4)
    42f8:	3a05883a 	add	r2,r7,r8
    42fc:	38c00054 	ori	r3,r7,1
    4300:	11c00015 	stw	r7,0(r2)
    4304:	41000215 	stw	r4,8(r8)
    4308:	40c00115 	stw	r3,4(r8)
    430c:	41000315 	stw	r4,12(r8)
    4310:	003f8406 	br	4124 <_free_r+0xb4>
    4314:	1005d0ba 	srai	r2,r2,2
    4318:	00c00044 	movi	r3,1
    431c:	51000117 	ldw	r4,4(r10)
    4320:	1886983a 	sll	r3,r3,r2
    4324:	20c8b03a 	or	r4,r4,r3
    4328:	51000115 	stw	r4,4(r10)
    432c:	003fa706 	br	41cc <_free_r+0x15c>
    4330:	00801504 	movi	r2,84
    4334:	10c00436 	bltu	r2,r3,4348 <_free_r+0x2d8>
    4338:	3804d33a 	srli	r2,r7,12
    433c:	10801b84 	addi	r2,r2,110
    4340:	100690fa 	slli	r3,r2,3
    4344:	003f9706 	br	41a4 <_free_r+0x134>
    4348:	00805504 	movi	r2,340
    434c:	10c00436 	bltu	r2,r3,4360 <_free_r+0x2f0>
    4350:	3804d3fa 	srli	r2,r7,15
    4354:	10801dc4 	addi	r2,r2,119
    4358:	100690fa 	slli	r3,r2,3
    435c:	003f9106 	br	41a4 <_free_r+0x134>
    4360:	00815504 	movi	r2,1364
    4364:	10c0032e 	bgeu	r2,r3,4374 <_free_r+0x304>
    4368:	00801f84 	movi	r2,126
    436c:	00c0fc04 	movi	r3,1008
    4370:	003f8c06 	br	41a4 <_free_r+0x134>
    4374:	3804d4ba 	srli	r2,r7,18
    4378:	10801f04 	addi	r2,r2,124
    437c:	100690fa 	slli	r3,r2,3
    4380:	003f8806 	br	41a4 <_free_r+0x134>

00004384 <_fwalk_reent>:
    4384:	defff704 	addi	sp,sp,-36
    4388:	dcc00315 	stw	r19,12(sp)
    438c:	24c0b804 	addi	r19,r4,736
    4390:	dd800615 	stw	r22,24(sp)
    4394:	dd400515 	stw	r21,20(sp)
    4398:	dfc00815 	stw	ra,32(sp)
    439c:	ddc00715 	stw	r23,28(sp)
    43a0:	dd000415 	stw	r20,16(sp)
    43a4:	dc800215 	stw	r18,8(sp)
    43a8:	dc400115 	stw	r17,4(sp)
    43ac:	dc000015 	stw	r16,0(sp)
    43b0:	202b883a 	mov	r21,r4
    43b4:	282d883a 	mov	r22,r5
    43b8:	0003cdc0 	call	3cdc <__sfp_lock_acquire>
    43bc:	98002126 	beq	r19,zero,4444 <_fwalk_reent+0xc0>
    43c0:	002f883a 	mov	r23,zero
    43c4:	9c800117 	ldw	r18,4(r19)
    43c8:	9c000217 	ldw	r16,8(r19)
    43cc:	90bfffc4 	addi	r2,r18,-1
    43d0:	10000d16 	blt	r2,zero,4408 <_fwalk_reent+0x84>
    43d4:	0023883a 	mov	r17,zero
    43d8:	053fffc4 	movi	r20,-1
    43dc:	8080030f 	ldh	r2,12(r16)
    43e0:	8c400044 	addi	r17,r17,1
    43e4:	10000626 	beq	r2,zero,4400 <_fwalk_reent+0x7c>
    43e8:	8080038f 	ldh	r2,14(r16)
    43ec:	800b883a 	mov	r5,r16
    43f0:	a809883a 	mov	r4,r21
    43f4:	15000226 	beq	r2,r20,4400 <_fwalk_reent+0x7c>
    43f8:	b03ee83a 	callr	r22
    43fc:	b8aeb03a 	or	r23,r23,r2
    4400:	84001704 	addi	r16,r16,92
    4404:	947ff51e 	bne	r18,r17,43dc <_fwalk_reent+0x58>
    4408:	9cc00017 	ldw	r19,0(r19)
    440c:	983fed1e 	bne	r19,zero,43c4 <_fwalk_reent+0x40>
    4410:	0003ce00 	call	3ce0 <__sfp_lock_release>
    4414:	b805883a 	mov	r2,r23
    4418:	dfc00817 	ldw	ra,32(sp)
    441c:	ddc00717 	ldw	r23,28(sp)
    4420:	dd800617 	ldw	r22,24(sp)
    4424:	dd400517 	ldw	r21,20(sp)
    4428:	dd000417 	ldw	r20,16(sp)
    442c:	dcc00317 	ldw	r19,12(sp)
    4430:	dc800217 	ldw	r18,8(sp)
    4434:	dc400117 	ldw	r17,4(sp)
    4438:	dc000017 	ldw	r16,0(sp)
    443c:	dec00904 	addi	sp,sp,36
    4440:	f800283a 	ret
    4444:	002f883a 	mov	r23,zero
    4448:	003ff106 	br	4410 <_fwalk_reent+0x8c>

0000444c <_fwalk>:
    444c:	defff804 	addi	sp,sp,-32
    4450:	dcc00315 	stw	r19,12(sp)
    4454:	24c0b804 	addi	r19,r4,736
    4458:	dd400515 	stw	r21,20(sp)
    445c:	dfc00715 	stw	ra,28(sp)
    4460:	dd800615 	stw	r22,24(sp)
    4464:	dd000415 	stw	r20,16(sp)
    4468:	dc800215 	stw	r18,8(sp)
    446c:	dc400115 	stw	r17,4(sp)
    4470:	dc000015 	stw	r16,0(sp)
    4474:	282b883a 	mov	r21,r5
    4478:	0003cdc0 	call	3cdc <__sfp_lock_acquire>
    447c:	98001f26 	beq	r19,zero,44fc <_fwalk+0xb0>
    4480:	002d883a 	mov	r22,zero
    4484:	9c800117 	ldw	r18,4(r19)
    4488:	9c000217 	ldw	r16,8(r19)
    448c:	90bfffc4 	addi	r2,r18,-1
    4490:	10000c16 	blt	r2,zero,44c4 <_fwalk+0x78>
    4494:	0023883a 	mov	r17,zero
    4498:	053fffc4 	movi	r20,-1
    449c:	8080030f 	ldh	r2,12(r16)
    44a0:	8c400044 	addi	r17,r17,1
    44a4:	10000526 	beq	r2,zero,44bc <_fwalk+0x70>
    44a8:	8080038f 	ldh	r2,14(r16)
    44ac:	8009883a 	mov	r4,r16
    44b0:	15000226 	beq	r2,r20,44bc <_fwalk+0x70>
    44b4:	a83ee83a 	callr	r21
    44b8:	b0acb03a 	or	r22,r22,r2
    44bc:	84001704 	addi	r16,r16,92
    44c0:	947ff61e 	bne	r18,r17,449c <_fwalk+0x50>
    44c4:	9cc00017 	ldw	r19,0(r19)
    44c8:	983fee1e 	bne	r19,zero,4484 <_fwalk+0x38>
    44cc:	0003ce00 	call	3ce0 <__sfp_lock_release>
    44d0:	b005883a 	mov	r2,r22
    44d4:	dfc00717 	ldw	ra,28(sp)
    44d8:	dd800617 	ldw	r22,24(sp)
    44dc:	dd400517 	ldw	r21,20(sp)
    44e0:	dd000417 	ldw	r20,16(sp)
    44e4:	dcc00317 	ldw	r19,12(sp)
    44e8:	dc800217 	ldw	r18,8(sp)
    44ec:	dc400117 	ldw	r17,4(sp)
    44f0:	dc000017 	ldw	r16,0(sp)
    44f4:	dec00804 	addi	sp,sp,32
    44f8:	f800283a 	ret
    44fc:	002d883a 	mov	r22,zero
    4500:	003ff206 	br	44cc <_fwalk+0x80>

00004504 <__smakebuf_r>:
    4504:	2880030b 	ldhu	r2,12(r5)
    4508:	deffed04 	addi	sp,sp,-76
    450c:	dc401015 	stw	r17,64(sp)
    4510:	1080008c 	andi	r2,r2,2
    4514:	dc000f15 	stw	r16,60(sp)
    4518:	dfc01215 	stw	ra,72(sp)
    451c:	dc801115 	stw	r18,68(sp)
    4520:	2821883a 	mov	r16,r5
    4524:	2023883a 	mov	r17,r4
    4528:	10000b26 	beq	r2,zero,4558 <__smakebuf_r+0x54>
    452c:	28c010c4 	addi	r3,r5,67
    4530:	00800044 	movi	r2,1
    4534:	28800515 	stw	r2,20(r5)
    4538:	28c00415 	stw	r3,16(r5)
    453c:	28c00015 	stw	r3,0(r5)
    4540:	dfc01217 	ldw	ra,72(sp)
    4544:	dc801117 	ldw	r18,68(sp)
    4548:	dc401017 	ldw	r17,64(sp)
    454c:	dc000f17 	ldw	r16,60(sp)
    4550:	dec01304 	addi	sp,sp,76
    4554:	f800283a 	ret
    4558:	2940038f 	ldh	r5,14(r5)
    455c:	28002116 	blt	r5,zero,45e4 <__smakebuf_r+0xe0>
    4560:	d80d883a 	mov	r6,sp
    4564:	00052380 	call	5238 <_fstat_r>
    4568:	10001e16 	blt	r2,zero,45e4 <__smakebuf_r+0xe0>
    456c:	d8800117 	ldw	r2,4(sp)
    4570:	00e00014 	movui	r3,32768
    4574:	113c000c 	andi	r4,r2,61440
    4578:	20c03126 	beq	r4,r3,4640 <__smakebuf_r+0x13c>
    457c:	8080030b 	ldhu	r2,12(r16)
    4580:	00c80004 	movi	r3,8192
    4584:	10820014 	ori	r2,r2,2048
    4588:	8080030d 	sth	r2,12(r16)
    458c:	20c01e26 	beq	r4,r3,4608 <__smakebuf_r+0x104>
    4590:	04810004 	movi	r18,1024
    4594:	8809883a 	mov	r4,r17
    4598:	900b883a 	mov	r5,r18
    459c:	00046980 	call	4698 <_malloc_r>
    45a0:	1009883a 	mov	r4,r2
    45a4:	10003126 	beq	r2,zero,466c <__smakebuf_r+0x168>
    45a8:	80c0030b 	ldhu	r3,12(r16)
    45ac:	00800034 	movhi	r2,0
    45b0:	108f7404 	addi	r2,r2,15824
    45b4:	88800f15 	stw	r2,60(r17)
    45b8:	18c02014 	ori	r3,r3,128
    45bc:	84800515 	stw	r18,20(r16)
    45c0:	80c0030d 	sth	r3,12(r16)
    45c4:	81000415 	stw	r4,16(r16)
    45c8:	81000015 	stw	r4,0(r16)
    45cc:	dfc01217 	ldw	ra,72(sp)
    45d0:	dc801117 	ldw	r18,68(sp)
    45d4:	dc401017 	ldw	r17,64(sp)
    45d8:	dc000f17 	ldw	r16,60(sp)
    45dc:	dec01304 	addi	sp,sp,76
    45e0:	f800283a 	ret
    45e4:	80c0030b 	ldhu	r3,12(r16)
    45e8:	1880200c 	andi	r2,r3,128
    45ec:	10000426 	beq	r2,zero,4600 <__smakebuf_r+0xfc>
    45f0:	04801004 	movi	r18,64
    45f4:	18820014 	ori	r2,r3,2048
    45f8:	8080030d 	sth	r2,12(r16)
    45fc:	003fe506 	br	4594 <__smakebuf_r+0x90>
    4600:	04810004 	movi	r18,1024
    4604:	003ffb06 	br	45f4 <__smakebuf_r+0xf0>
    4608:	8140038f 	ldh	r5,14(r16)
    460c:	8809883a 	mov	r4,r17
    4610:	00052ac0 	call	52ac <_isatty_r>
    4614:	103fde26 	beq	r2,zero,4590 <__smakebuf_r+0x8c>
    4618:	8080030b 	ldhu	r2,12(r16)
    461c:	80c010c4 	addi	r3,r16,67
    4620:	04810004 	movi	r18,1024
    4624:	10800054 	ori	r2,r2,1
    4628:	8080030d 	sth	r2,12(r16)
    462c:	00800044 	movi	r2,1
    4630:	80c00415 	stw	r3,16(r16)
    4634:	80800515 	stw	r2,20(r16)
    4638:	80c00015 	stw	r3,0(r16)
    463c:	003fd506 	br	4594 <__smakebuf_r+0x90>
    4640:	80c00a17 	ldw	r3,40(r16)
    4644:	00800034 	movhi	r2,0
    4648:	1093ba04 	addi	r2,r2,20200
    464c:	18bfcb1e 	bne	r3,r2,457c <__smakebuf_r+0x78>
    4650:	8080030b 	ldhu	r2,12(r16)
    4654:	00c10004 	movi	r3,1024
    4658:	1825883a 	mov	r18,r3
    465c:	10c4b03a 	or	r2,r2,r3
    4660:	8080030d 	sth	r2,12(r16)
    4664:	80c01315 	stw	r3,76(r16)
    4668:	003fca06 	br	4594 <__smakebuf_r+0x90>
    466c:	8100030b 	ldhu	r4,12(r16)
    4670:	2080800c 	andi	r2,r4,512
    4674:	103fb21e 	bne	r2,zero,4540 <__smakebuf_r+0x3c>
    4678:	80c010c4 	addi	r3,r16,67
    467c:	21000094 	ori	r4,r4,2
    4680:	00800044 	movi	r2,1
    4684:	80800515 	stw	r2,20(r16)
    4688:	8100030d 	sth	r4,12(r16)
    468c:	80c00415 	stw	r3,16(r16)
    4690:	80c00015 	stw	r3,0(r16)
    4694:	003faa06 	br	4540 <__smakebuf_r+0x3c>

00004698 <_malloc_r>:
    4698:	defff604 	addi	sp,sp,-40
    469c:	28c002c4 	addi	r3,r5,11
    46a0:	00800584 	movi	r2,22
    46a4:	dc800215 	stw	r18,8(sp)
    46a8:	dfc00915 	stw	ra,36(sp)
    46ac:	df000815 	stw	fp,32(sp)
    46b0:	ddc00715 	stw	r23,28(sp)
    46b4:	dd800615 	stw	r22,24(sp)
    46b8:	dd400515 	stw	r21,20(sp)
    46bc:	dd000415 	stw	r20,16(sp)
    46c0:	dcc00315 	stw	r19,12(sp)
    46c4:	dc400115 	stw	r17,4(sp)
    46c8:	dc000015 	stw	r16,0(sp)
    46cc:	2025883a 	mov	r18,r4
    46d0:	10c01236 	bltu	r2,r3,471c <_malloc_r+0x84>
    46d4:	04400404 	movi	r17,16
    46d8:	8940142e 	bgeu	r17,r5,472c <_malloc_r+0x94>
    46dc:	00800304 	movi	r2,12
    46e0:	0007883a 	mov	r3,zero
    46e4:	90800015 	stw	r2,0(r18)
    46e8:	1805883a 	mov	r2,r3
    46ec:	dfc00917 	ldw	ra,36(sp)
    46f0:	df000817 	ldw	fp,32(sp)
    46f4:	ddc00717 	ldw	r23,28(sp)
    46f8:	dd800617 	ldw	r22,24(sp)
    46fc:	dd400517 	ldw	r21,20(sp)
    4700:	dd000417 	ldw	r20,16(sp)
    4704:	dcc00317 	ldw	r19,12(sp)
    4708:	dc800217 	ldw	r18,8(sp)
    470c:	dc400117 	ldw	r17,4(sp)
    4710:	dc000017 	ldw	r16,0(sp)
    4714:	dec00a04 	addi	sp,sp,40
    4718:	f800283a 	ret
    471c:	00bffe04 	movi	r2,-8
    4720:	18a2703a 	and	r17,r3,r2
    4724:	883fed16 	blt	r17,zero,46dc <_malloc_r+0x44>
    4728:	897fec36 	bltu	r17,r5,46dc <_malloc_r+0x44>
    472c:	9009883a 	mov	r4,r18
    4730:	00055bc0 	call	55bc <__malloc_lock>
    4734:	00807dc4 	movi	r2,503
    4738:	14402b2e 	bgeu	r2,r17,47e8 <_malloc_r+0x150>
    473c:	8806d27a 	srli	r3,r17,9
    4740:	18003f1e 	bne	r3,zero,4840 <_malloc_r+0x1a8>
    4744:	880cd0fa 	srli	r6,r17,3
    4748:	300490fa 	slli	r2,r6,3
    474c:	02c000f4 	movhi	r11,3
    4750:	5af58604 	addi	r11,r11,-10728
    4754:	12cb883a 	add	r5,r2,r11
    4758:	2c000317 	ldw	r16,12(r5)
    475c:	580f883a 	mov	r7,r11
    4760:	2c00041e 	bne	r5,r16,4774 <_malloc_r+0xdc>
    4764:	00000a06 	br	4790 <_malloc_r+0xf8>
    4768:	1800860e 	bge	r3,zero,4984 <_malloc_r+0x2ec>
    476c:	84000317 	ldw	r16,12(r16)
    4770:	2c000726 	beq	r5,r16,4790 <_malloc_r+0xf8>
    4774:	80800117 	ldw	r2,4(r16)
    4778:	00ffff04 	movi	r3,-4
    477c:	10c8703a 	and	r4,r2,r3
    4780:	2447c83a 	sub	r3,r4,r17
    4784:	008003c4 	movi	r2,15
    4788:	10fff70e 	bge	r2,r3,4768 <_malloc_r+0xd0>
    478c:	31bfffc4 	addi	r6,r6,-1
    4790:	32400044 	addi	r9,r6,1
    4794:	028000f4 	movhi	r10,3
    4798:	52b58804 	addi	r10,r10,-10720
    479c:	54000217 	ldw	r16,8(r10)
    47a0:	8280a026 	beq	r16,r10,4a24 <_malloc_r+0x38c>
    47a4:	80800117 	ldw	r2,4(r16)
    47a8:	00ffff04 	movi	r3,-4
    47ac:	10ca703a 	and	r5,r2,r3
    47b0:	2c4dc83a 	sub	r6,r5,r17
    47b4:	008003c4 	movi	r2,15
    47b8:	11808316 	blt	r2,r6,49c8 <_malloc_r+0x330>
    47bc:	52800315 	stw	r10,12(r10)
    47c0:	52800215 	stw	r10,8(r10)
    47c4:	30002916 	blt	r6,zero,486c <_malloc_r+0x1d4>
    47c8:	8147883a 	add	r3,r16,r5
    47cc:	18800117 	ldw	r2,4(r3)
    47d0:	9009883a 	mov	r4,r18
    47d4:	10800054 	ori	r2,r2,1
    47d8:	18800115 	stw	r2,4(r3)
    47dc:	00055c00 	call	55c0 <__malloc_unlock>
    47e0:	80c00204 	addi	r3,r16,8
    47e4:	003fc006 	br	46e8 <_malloc_r+0x50>
    47e8:	02c000f4 	movhi	r11,3
    47ec:	5af58604 	addi	r11,r11,-10728
    47f0:	8ac5883a 	add	r2,r17,r11
    47f4:	14000317 	ldw	r16,12(r2)
    47f8:	580f883a 	mov	r7,r11
    47fc:	8806d0fa 	srli	r3,r17,3
    4800:	14006c26 	beq	r2,r16,49b4 <_malloc_r+0x31c>
    4804:	80c00117 	ldw	r3,4(r16)
    4808:	00bfff04 	movi	r2,-4
    480c:	81800317 	ldw	r6,12(r16)
    4810:	1886703a 	and	r3,r3,r2
    4814:	80c7883a 	add	r3,r16,r3
    4818:	18800117 	ldw	r2,4(r3)
    481c:	81400217 	ldw	r5,8(r16)
    4820:	9009883a 	mov	r4,r18
    4824:	10800054 	ori	r2,r2,1
    4828:	18800115 	stw	r2,4(r3)
    482c:	31400215 	stw	r5,8(r6)
    4830:	29800315 	stw	r6,12(r5)
    4834:	00055c00 	call	55c0 <__malloc_unlock>
    4838:	80c00204 	addi	r3,r16,8
    483c:	003faa06 	br	46e8 <_malloc_r+0x50>
    4840:	00800104 	movi	r2,4
    4844:	10c0052e 	bgeu	r2,r3,485c <_malloc_r+0x1c4>
    4848:	00800504 	movi	r2,20
    484c:	10c07836 	bltu	r2,r3,4a30 <_malloc_r+0x398>
    4850:	198016c4 	addi	r6,r3,91
    4854:	300490fa 	slli	r2,r6,3
    4858:	003fbc06 	br	474c <_malloc_r+0xb4>
    485c:	8804d1ba 	srli	r2,r17,6
    4860:	11800e04 	addi	r6,r2,56
    4864:	300490fa 	slli	r2,r6,3
    4868:	003fb806 	br	474c <_malloc_r+0xb4>
    486c:	00807fc4 	movi	r2,511
    4870:	1140bb36 	bltu	r2,r5,4b60 <_malloc_r+0x4c8>
    4874:	2806d0fa 	srli	r3,r5,3
    4878:	573ffe04 	addi	fp,r10,-8
    487c:	00800044 	movi	r2,1
    4880:	180890fa 	slli	r4,r3,3
    4884:	1807d0ba 	srai	r3,r3,2
    4888:	e1c00117 	ldw	r7,4(fp)
    488c:	5909883a 	add	r4,r11,r4
    4890:	21400217 	ldw	r5,8(r4)
    4894:	10c4983a 	sll	r2,r2,r3
    4898:	81000315 	stw	r4,12(r16)
    489c:	81400215 	stw	r5,8(r16)
    48a0:	388eb03a 	or	r7,r7,r2
    48a4:	2c000315 	stw	r16,12(r5)
    48a8:	24000215 	stw	r16,8(r4)
    48ac:	e1c00115 	stw	r7,4(fp)
    48b0:	4807883a 	mov	r3,r9
    48b4:	4800cd16 	blt	r9,zero,4bec <_malloc_r+0x554>
    48b8:	1807d0ba 	srai	r3,r3,2
    48bc:	00800044 	movi	r2,1
    48c0:	10c8983a 	sll	r4,r2,r3
    48c4:	39004436 	bltu	r7,r4,49d8 <_malloc_r+0x340>
    48c8:	21c4703a 	and	r2,r4,r7
    48cc:	10000a1e 	bne	r2,zero,48f8 <_malloc_r+0x260>
    48d0:	2109883a 	add	r4,r4,r4
    48d4:	00bfff04 	movi	r2,-4
    48d8:	4884703a 	and	r2,r9,r2
    48dc:	3906703a 	and	r3,r7,r4
    48e0:	12400104 	addi	r9,r2,4
    48e4:	1800041e 	bne	r3,zero,48f8 <_malloc_r+0x260>
    48e8:	2109883a 	add	r4,r4,r4
    48ec:	3904703a 	and	r2,r7,r4
    48f0:	4a400104 	addi	r9,r9,4
    48f4:	103ffc26 	beq	r2,zero,48e8 <_malloc_r+0x250>
    48f8:	480490fa 	slli	r2,r9,3
    48fc:	4819883a 	mov	r12,r9
    4900:	023fff04 	movi	r8,-4
    4904:	589b883a 	add	r13,r11,r2
    4908:	6807883a 	mov	r3,r13
    490c:	014003c4 	movi	r5,15
    4910:	1c000317 	ldw	r16,12(r3)
    4914:	1c00041e 	bne	r3,r16,4928 <_malloc_r+0x290>
    4918:	0000a706 	br	4bb8 <_malloc_r+0x520>
    491c:	3000ab0e 	bge	r6,zero,4bcc <_malloc_r+0x534>
    4920:	84000317 	ldw	r16,12(r16)
    4924:	1c00a426 	beq	r3,r16,4bb8 <_malloc_r+0x520>
    4928:	80800117 	ldw	r2,4(r16)
    492c:	1204703a 	and	r2,r2,r8
    4930:	144dc83a 	sub	r6,r2,r17
    4934:	29bff90e 	bge	r5,r6,491c <_malloc_r+0x284>
    4938:	81000317 	ldw	r4,12(r16)
    493c:	80c00217 	ldw	r3,8(r16)
    4940:	89400054 	ori	r5,r17,1
    4944:	8445883a 	add	r2,r16,r17
    4948:	20c00215 	stw	r3,8(r4)
    494c:	19000315 	stw	r4,12(r3)
    4950:	81400115 	stw	r5,4(r16)
    4954:	1187883a 	add	r3,r2,r6
    4958:	31000054 	ori	r4,r6,1
    495c:	50800315 	stw	r2,12(r10)
    4960:	50800215 	stw	r2,8(r10)
    4964:	19800015 	stw	r6,0(r3)
    4968:	11000115 	stw	r4,4(r2)
    496c:	12800215 	stw	r10,8(r2)
    4970:	12800315 	stw	r10,12(r2)
    4974:	9009883a 	mov	r4,r18
    4978:	00055c00 	call	55c0 <__malloc_unlock>
    497c:	80c00204 	addi	r3,r16,8
    4980:	003f5906 	br	46e8 <_malloc_r+0x50>
    4984:	8109883a 	add	r4,r16,r4
    4988:	20800117 	ldw	r2,4(r4)
    498c:	80c00217 	ldw	r3,8(r16)
    4990:	81400317 	ldw	r5,12(r16)
    4994:	10800054 	ori	r2,r2,1
    4998:	20800115 	stw	r2,4(r4)
    499c:	28c00215 	stw	r3,8(r5)
    49a0:	19400315 	stw	r5,12(r3)
    49a4:	9009883a 	mov	r4,r18
    49a8:	00055c00 	call	55c0 <__malloc_unlock>
    49ac:	80c00204 	addi	r3,r16,8
    49b0:	003f4d06 	br	46e8 <_malloc_r+0x50>
    49b4:	80800204 	addi	r2,r16,8
    49b8:	14000317 	ldw	r16,12(r2)
    49bc:	143f911e 	bne	r2,r16,4804 <_malloc_r+0x16c>
    49c0:	1a400084 	addi	r9,r3,2
    49c4:	003f7306 	br	4794 <_malloc_r+0xfc>
    49c8:	88c00054 	ori	r3,r17,1
    49cc:	8445883a 	add	r2,r16,r17
    49d0:	80c00115 	stw	r3,4(r16)
    49d4:	003fdf06 	br	4954 <_malloc_r+0x2bc>
    49d8:	e4000217 	ldw	r16,8(fp)
    49dc:	00bfff04 	movi	r2,-4
    49e0:	80c00117 	ldw	r3,4(r16)
    49e4:	802d883a 	mov	r22,r16
    49e8:	18aa703a 	and	r21,r3,r2
    49ec:	ac401636 	bltu	r21,r17,4a48 <_malloc_r+0x3b0>
    49f0:	ac49c83a 	sub	r4,r21,r17
    49f4:	008003c4 	movi	r2,15
    49f8:	1100130e 	bge	r2,r4,4a48 <_malloc_r+0x3b0>
    49fc:	88800054 	ori	r2,r17,1
    4a00:	8447883a 	add	r3,r16,r17
    4a04:	80800115 	stw	r2,4(r16)
    4a08:	20800054 	ori	r2,r4,1
    4a0c:	18800115 	stw	r2,4(r3)
    4a10:	e0c00215 	stw	r3,8(fp)
    4a14:	9009883a 	mov	r4,r18
    4a18:	00055c00 	call	55c0 <__malloc_unlock>
    4a1c:	80c00204 	addi	r3,r16,8
    4a20:	003f3106 	br	46e8 <_malloc_r+0x50>
    4a24:	39c00117 	ldw	r7,4(r7)
    4a28:	573ffe04 	addi	fp,r10,-8
    4a2c:	003fa006 	br	48b0 <_malloc_r+0x218>
    4a30:	00801504 	movi	r2,84
    4a34:	10c06736 	bltu	r2,r3,4bd4 <_malloc_r+0x53c>
    4a38:	8804d33a 	srli	r2,r17,12
    4a3c:	11801b84 	addi	r6,r2,110
    4a40:	300490fa 	slli	r2,r6,3
    4a44:	003f4106 	br	474c <_malloc_r+0xb4>
    4a48:	d0a01d17 	ldw	r2,-32652(gp)
    4a4c:	d0e01117 	ldw	r3,-32700(gp)
    4a50:	053fffc4 	movi	r20,-1
    4a54:	10800404 	addi	r2,r2,16
    4a58:	88a7883a 	add	r19,r17,r2
    4a5c:	1d000326 	beq	r3,r20,4a6c <_malloc_r+0x3d4>
    4a60:	98c3ffc4 	addi	r3,r19,4095
    4a64:	00bc0004 	movi	r2,-4096
    4a68:	18a6703a 	and	r19,r3,r2
    4a6c:	9009883a 	mov	r4,r18
    4a70:	980b883a 	mov	r5,r19
    4a74:	0004e700 	call	4e70 <_sbrk_r>
    4a78:	1009883a 	mov	r4,r2
    4a7c:	15000426 	beq	r2,r20,4a90 <_malloc_r+0x3f8>
    4a80:	854b883a 	add	r5,r16,r21
    4a84:	1029883a 	mov	r20,r2
    4a88:	11405a2e 	bgeu	r2,r5,4bf4 <_malloc_r+0x55c>
    4a8c:	87000c26 	beq	r16,fp,4ac0 <_malloc_r+0x428>
    4a90:	e4000217 	ldw	r16,8(fp)
    4a94:	80c00117 	ldw	r3,4(r16)
    4a98:	00bfff04 	movi	r2,-4
    4a9c:	1884703a 	and	r2,r3,r2
    4aa0:	14400336 	bltu	r2,r17,4ab0 <_malloc_r+0x418>
    4aa4:	1449c83a 	sub	r4,r2,r17
    4aa8:	008003c4 	movi	r2,15
    4aac:	113fd316 	blt	r2,r4,49fc <_malloc_r+0x364>
    4ab0:	9009883a 	mov	r4,r18
    4ab4:	00055c00 	call	55c0 <__malloc_unlock>
    4ab8:	0007883a 	mov	r3,zero
    4abc:	003f0a06 	br	46e8 <_malloc_r+0x50>
    4ac0:	05c000f4 	movhi	r23,3
    4ac4:	bdf6a804 	addi	r23,r23,-9568
    4ac8:	b8800017 	ldw	r2,0(r23)
    4acc:	988d883a 	add	r6,r19,r2
    4ad0:	b9800015 	stw	r6,0(r23)
    4ad4:	d0e01117 	ldw	r3,-32700(gp)
    4ad8:	00bfffc4 	movi	r2,-1
    4adc:	18808e26 	beq	r3,r2,4d18 <_malloc_r+0x680>
    4ae0:	2145c83a 	sub	r2,r4,r5
    4ae4:	3085883a 	add	r2,r6,r2
    4ae8:	b8800015 	stw	r2,0(r23)
    4aec:	20c001cc 	andi	r3,r4,7
    4af0:	18005f1e 	bne	r3,zero,4c70 <_malloc_r+0x5d8>
    4af4:	000b883a 	mov	r5,zero
    4af8:	a4c5883a 	add	r2,r20,r19
    4afc:	1083ffcc 	andi	r2,r2,4095
    4b00:	00c40004 	movi	r3,4096
    4b04:	1887c83a 	sub	r3,r3,r2
    4b08:	28e7883a 	add	r19,r5,r3
    4b0c:	9009883a 	mov	r4,r18
    4b10:	980b883a 	mov	r5,r19
    4b14:	0004e700 	call	4e70 <_sbrk_r>
    4b18:	1007883a 	mov	r3,r2
    4b1c:	00bfffc4 	movi	r2,-1
    4b20:	18807a26 	beq	r3,r2,4d0c <_malloc_r+0x674>
    4b24:	1d05c83a 	sub	r2,r3,r20
    4b28:	9885883a 	add	r2,r19,r2
    4b2c:	10c00054 	ori	r3,r2,1
    4b30:	b8800017 	ldw	r2,0(r23)
    4b34:	a021883a 	mov	r16,r20
    4b38:	a0c00115 	stw	r3,4(r20)
    4b3c:	9885883a 	add	r2,r19,r2
    4b40:	b8800015 	stw	r2,0(r23)
    4b44:	e5000215 	stw	r20,8(fp)
    4b48:	b7003626 	beq	r22,fp,4c24 <_malloc_r+0x58c>
    4b4c:	018003c4 	movi	r6,15
    4b50:	35404b36 	bltu	r6,r21,4c80 <_malloc_r+0x5e8>
    4b54:	00800044 	movi	r2,1
    4b58:	a0800115 	stw	r2,4(r20)
    4b5c:	003fcd06 	br	4a94 <_malloc_r+0x3fc>
    4b60:	2808d27a 	srli	r4,r5,9
    4b64:	2000371e 	bne	r4,zero,4c44 <_malloc_r+0x5ac>
    4b68:	2808d0fa 	srli	r4,r5,3
    4b6c:	200690fa 	slli	r3,r4,3
    4b70:	1ad1883a 	add	r8,r3,r11
    4b74:	41800217 	ldw	r6,8(r8)
    4b78:	41805b26 	beq	r8,r6,4ce8 <_malloc_r+0x650>
    4b7c:	30800117 	ldw	r2,4(r6)
    4b80:	00ffff04 	movi	r3,-4
    4b84:	10c4703a 	and	r2,r2,r3
    4b88:	2880022e 	bgeu	r5,r2,4b94 <_malloc_r+0x4fc>
    4b8c:	31800217 	ldw	r6,8(r6)
    4b90:	41bffa1e 	bne	r8,r6,4b7c <_malloc_r+0x4e4>
    4b94:	32000317 	ldw	r8,12(r6)
    4b98:	39c00117 	ldw	r7,4(r7)
    4b9c:	82000315 	stw	r8,12(r16)
    4ba0:	81800215 	stw	r6,8(r16)
    4ba4:	070000f4 	movhi	fp,3
    4ba8:	e7358604 	addi	fp,fp,-10728
    4bac:	34000315 	stw	r16,12(r6)
    4bb0:	44000215 	stw	r16,8(r8)
    4bb4:	003f3e06 	br	48b0 <_malloc_r+0x218>
    4bb8:	63000044 	addi	r12,r12,1
    4bbc:	608000cc 	andi	r2,r12,3
    4bc0:	10005d26 	beq	r2,zero,4d38 <_malloc_r+0x6a0>
    4bc4:	18c00204 	addi	r3,r3,8
    4bc8:	003f5106 	br	4910 <_malloc_r+0x278>
    4bcc:	8089883a 	add	r4,r16,r2
    4bd0:	003f6d06 	br	4988 <_malloc_r+0x2f0>
    4bd4:	00805504 	movi	r2,340
    4bd8:	10c02036 	bltu	r2,r3,4c5c <_malloc_r+0x5c4>
    4bdc:	8804d3fa 	srli	r2,r17,15
    4be0:	11801dc4 	addi	r6,r2,119
    4be4:	300490fa 	slli	r2,r6,3
    4be8:	003ed806 	br	474c <_malloc_r+0xb4>
    4bec:	48c000c4 	addi	r3,r9,3
    4bf0:	003f3106 	br	48b8 <_malloc_r+0x220>
    4bf4:	05c000f4 	movhi	r23,3
    4bf8:	bdf6a804 	addi	r23,r23,-9568
    4bfc:	b8800017 	ldw	r2,0(r23)
    4c00:	988d883a 	add	r6,r19,r2
    4c04:	b9800015 	stw	r6,0(r23)
    4c08:	293fb21e 	bne	r5,r4,4ad4 <_malloc_r+0x43c>
    4c0c:	2083ffcc 	andi	r2,r4,4095
    4c10:	103fb01e 	bne	r2,zero,4ad4 <_malloc_r+0x43c>
    4c14:	e4000217 	ldw	r16,8(fp)
    4c18:	9d45883a 	add	r2,r19,r21
    4c1c:	10800054 	ori	r2,r2,1
    4c20:	80800115 	stw	r2,4(r16)
    4c24:	b8c00017 	ldw	r3,0(r23)
    4c28:	d0a01e17 	ldw	r2,-32648(gp)
    4c2c:	10c0012e 	bgeu	r2,r3,4c34 <_malloc_r+0x59c>
    4c30:	d0e01e15 	stw	r3,-32648(gp)
    4c34:	d0a01f17 	ldw	r2,-32644(gp)
    4c38:	10ff962e 	bgeu	r2,r3,4a94 <_malloc_r+0x3fc>
    4c3c:	d0e01f15 	stw	r3,-32644(gp)
    4c40:	003f9406 	br	4a94 <_malloc_r+0x3fc>
    4c44:	00800104 	movi	r2,4
    4c48:	11001e36 	bltu	r2,r4,4cc4 <_malloc_r+0x62c>
    4c4c:	2804d1ba 	srli	r2,r5,6
    4c50:	11000e04 	addi	r4,r2,56
    4c54:	200690fa 	slli	r3,r4,3
    4c58:	003fc506 	br	4b70 <_malloc_r+0x4d8>
    4c5c:	00815504 	movi	r2,1364
    4c60:	10c01d2e 	bgeu	r2,r3,4cd8 <_malloc_r+0x640>
    4c64:	01801f84 	movi	r6,126
    4c68:	0080fc04 	movi	r2,1008
    4c6c:	003eb706 	br	474c <_malloc_r+0xb4>
    4c70:	00800204 	movi	r2,8
    4c74:	10cbc83a 	sub	r5,r2,r3
    4c78:	2169883a 	add	r20,r4,r5
    4c7c:	003f9e06 	br	4af8 <_malloc_r+0x460>
    4c80:	00bffe04 	movi	r2,-8
    4c84:	a93ffd04 	addi	r4,r21,-12
    4c88:	2088703a 	and	r4,r4,r2
    4c8c:	b10b883a 	add	r5,r22,r4
    4c90:	00c00144 	movi	r3,5
    4c94:	28c00215 	stw	r3,8(r5)
    4c98:	28c00115 	stw	r3,4(r5)
    4c9c:	b0800117 	ldw	r2,4(r22)
    4ca0:	1080004c 	andi	r2,r2,1
    4ca4:	2084b03a 	or	r2,r4,r2
    4ca8:	b0800115 	stw	r2,4(r22)
    4cac:	313fdd2e 	bgeu	r6,r4,4c24 <_malloc_r+0x58c>
    4cb0:	b1400204 	addi	r5,r22,8
    4cb4:	9009883a 	mov	r4,r18
    4cb8:	00040700 	call	4070 <_free_r>
    4cbc:	e4000217 	ldw	r16,8(fp)
    4cc0:	003fd806 	br	4c24 <_malloc_r+0x58c>
    4cc4:	00800504 	movi	r2,20
    4cc8:	11001536 	bltu	r2,r4,4d20 <_malloc_r+0x688>
    4ccc:	210016c4 	addi	r4,r4,91
    4cd0:	200690fa 	slli	r3,r4,3
    4cd4:	003fa606 	br	4b70 <_malloc_r+0x4d8>
    4cd8:	8804d4ba 	srli	r2,r17,18
    4cdc:	11801f04 	addi	r6,r2,124
    4ce0:	300490fa 	slli	r2,r6,3
    4ce4:	003e9906 	br	474c <_malloc_r+0xb4>
    4ce8:	2009d0ba 	srai	r4,r4,2
    4cec:	014000f4 	movhi	r5,3
    4cf0:	29758604 	addi	r5,r5,-10728
    4cf4:	00c00044 	movi	r3,1
    4cf8:	28800117 	ldw	r2,4(r5)
    4cfc:	1906983a 	sll	r3,r3,r4
    4d00:	10c4b03a 	or	r2,r2,r3
    4d04:	28800115 	stw	r2,4(r5)
    4d08:	003fa306 	br	4b98 <_malloc_r+0x500>
    4d0c:	0027883a 	mov	r19,zero
    4d10:	00c00044 	movi	r3,1
    4d14:	003f8606 	br	4b30 <_malloc_r+0x498>
    4d18:	d1201115 	stw	r4,-32700(gp)
    4d1c:	003f7306 	br	4aec <_malloc_r+0x454>
    4d20:	00801504 	movi	r2,84
    4d24:	11001936 	bltu	r2,r4,4d8c <_malloc_r+0x6f4>
    4d28:	2804d33a 	srli	r2,r5,12
    4d2c:	11001b84 	addi	r4,r2,110
    4d30:	200690fa 	slli	r3,r4,3
    4d34:	003f8e06 	br	4b70 <_malloc_r+0x4d8>
    4d38:	480b883a 	mov	r5,r9
    4d3c:	6807883a 	mov	r3,r13
    4d40:	288000cc 	andi	r2,r5,3
    4d44:	18fffe04 	addi	r3,r3,-8
    4d48:	297fffc4 	addi	r5,r5,-1
    4d4c:	10001526 	beq	r2,zero,4da4 <_malloc_r+0x70c>
    4d50:	18800217 	ldw	r2,8(r3)
    4d54:	10fffa26 	beq	r2,r3,4d40 <_malloc_r+0x6a8>
    4d58:	2109883a 	add	r4,r4,r4
    4d5c:	393f1e36 	bltu	r7,r4,49d8 <_malloc_r+0x340>
    4d60:	203f1d26 	beq	r4,zero,49d8 <_malloc_r+0x340>
    4d64:	21c4703a 	and	r2,r4,r7
    4d68:	10000226 	beq	r2,zero,4d74 <_malloc_r+0x6dc>
    4d6c:	6013883a 	mov	r9,r12
    4d70:	003ee106 	br	48f8 <_malloc_r+0x260>
    4d74:	2109883a 	add	r4,r4,r4
    4d78:	3904703a 	and	r2,r7,r4
    4d7c:	63000104 	addi	r12,r12,4
    4d80:	103ffc26 	beq	r2,zero,4d74 <_malloc_r+0x6dc>
    4d84:	6013883a 	mov	r9,r12
    4d88:	003edb06 	br	48f8 <_malloc_r+0x260>
    4d8c:	00805504 	movi	r2,340
    4d90:	11000836 	bltu	r2,r4,4db4 <_malloc_r+0x71c>
    4d94:	2804d3fa 	srli	r2,r5,15
    4d98:	11001dc4 	addi	r4,r2,119
    4d9c:	200690fa 	slli	r3,r4,3
    4da0:	003f7306 	br	4b70 <_malloc_r+0x4d8>
    4da4:	0104303a 	nor	r2,zero,r4
    4da8:	388e703a 	and	r7,r7,r2
    4dac:	e1c00115 	stw	r7,4(fp)
    4db0:	003fe906 	br	4d58 <_malloc_r+0x6c0>
    4db4:	00815504 	movi	r2,1364
    4db8:	1100032e 	bgeu	r2,r4,4dc8 <_malloc_r+0x730>
    4dbc:	01001f84 	movi	r4,126
    4dc0:	00c0fc04 	movi	r3,1008
    4dc4:	003f6a06 	br	4b70 <_malloc_r+0x4d8>
    4dc8:	2804d4ba 	srli	r2,r5,18
    4dcc:	11001f04 	addi	r4,r2,124
    4dd0:	200690fa 	slli	r3,r4,3
    4dd4:	003f6606 	br	4b70 <_malloc_r+0x4d8>

00004dd8 <memset>:
    4dd8:	008000c4 	movi	r2,3
    4ddc:	29403fcc 	andi	r5,r5,255
    4de0:	2007883a 	mov	r3,r4
    4de4:	1180022e 	bgeu	r2,r6,4df0 <memset+0x18>
    4de8:	2084703a 	and	r2,r4,r2
    4dec:	10000826 	beq	r2,zero,4e10 <memset+0x38>
    4df0:	30000526 	beq	r6,zero,4e08 <memset+0x30>
    4df4:	2805883a 	mov	r2,r5
    4df8:	30cd883a 	add	r6,r6,r3
    4dfc:	18800005 	stb	r2,0(r3)
    4e00:	18c00044 	addi	r3,r3,1
    4e04:	19bffd1e 	bne	r3,r6,4dfc <memset+0x24>
    4e08:	2005883a 	mov	r2,r4
    4e0c:	f800283a 	ret
    4e10:	2804923a 	slli	r2,r5,8
    4e14:	020003c4 	movi	r8,15
    4e18:	200f883a 	mov	r7,r4
    4e1c:	2884b03a 	or	r2,r5,r2
    4e20:	1006943a 	slli	r3,r2,16
    4e24:	10c6b03a 	or	r3,r2,r3
    4e28:	41800a2e 	bgeu	r8,r6,4e54 <memset+0x7c>
    4e2c:	4005883a 	mov	r2,r8
    4e30:	31bffc04 	addi	r6,r6,-16
    4e34:	38c00015 	stw	r3,0(r7)
    4e38:	38c00115 	stw	r3,4(r7)
    4e3c:	38c00215 	stw	r3,8(r7)
    4e40:	38c00315 	stw	r3,12(r7)
    4e44:	39c00404 	addi	r7,r7,16
    4e48:	11bff936 	bltu	r2,r6,4e30 <memset+0x58>
    4e4c:	008000c4 	movi	r2,3
    4e50:	1180052e 	bgeu	r2,r6,4e68 <memset+0x90>
    4e54:	31bfff04 	addi	r6,r6,-4
    4e58:	008000c4 	movi	r2,3
    4e5c:	38c00015 	stw	r3,0(r7)
    4e60:	39c00104 	addi	r7,r7,4
    4e64:	11bffb36 	bltu	r2,r6,4e54 <memset+0x7c>
    4e68:	3807883a 	mov	r3,r7
    4e6c:	003fe006 	br	4df0 <memset+0x18>

00004e70 <_sbrk_r>:
    4e70:	defffd04 	addi	sp,sp,-12
    4e74:	dc000015 	stw	r16,0(sp)
    4e78:	040000f4 	movhi	r16,3
    4e7c:	8436a404 	addi	r16,r16,-9584
    4e80:	dc400115 	stw	r17,4(sp)
    4e84:	80000015 	stw	zero,0(r16)
    4e88:	2023883a 	mov	r17,r4
    4e8c:	2809883a 	mov	r4,r5
    4e90:	dfc00215 	stw	ra,8(sp)
    4e94:	00056bc0 	call	56bc <sbrk>
    4e98:	1007883a 	mov	r3,r2
    4e9c:	00bfffc4 	movi	r2,-1
    4ea0:	18800626 	beq	r3,r2,4ebc <_sbrk_r+0x4c>
    4ea4:	1805883a 	mov	r2,r3
    4ea8:	dfc00217 	ldw	ra,8(sp)
    4eac:	dc400117 	ldw	r17,4(sp)
    4eb0:	dc000017 	ldw	r16,0(sp)
    4eb4:	dec00304 	addi	sp,sp,12
    4eb8:	f800283a 	ret
    4ebc:	80800017 	ldw	r2,0(r16)
    4ec0:	103ff826 	beq	r2,zero,4ea4 <_sbrk_r+0x34>
    4ec4:	88800015 	stw	r2,0(r17)
    4ec8:	1805883a 	mov	r2,r3
    4ecc:	dfc00217 	ldw	ra,8(sp)
    4ed0:	dc400117 	ldw	r17,4(sp)
    4ed4:	dc000017 	ldw	r16,0(sp)
    4ed8:	dec00304 	addi	sp,sp,12
    4edc:	f800283a 	ret

00004ee0 <__sclose>:
    4ee0:	2940038f 	ldh	r5,14(r5)
    4ee4:	00050a41 	jmpi	50a4 <_close_r>

00004ee8 <__sseek>:
    4ee8:	defffe04 	addi	sp,sp,-8
    4eec:	dc000015 	stw	r16,0(sp)
    4ef0:	2821883a 	mov	r16,r5
    4ef4:	2940038f 	ldh	r5,14(r5)
    4ef8:	dfc00115 	stw	ra,4(sp)
    4efc:	000531c0 	call	531c <_lseek_r>
    4f00:	1007883a 	mov	r3,r2
    4f04:	00bfffc4 	movi	r2,-1
    4f08:	18800926 	beq	r3,r2,4f30 <__sseek+0x48>
    4f0c:	8080030b 	ldhu	r2,12(r16)
    4f10:	80c01415 	stw	r3,80(r16)
    4f14:	10840014 	ori	r2,r2,4096
    4f18:	8080030d 	sth	r2,12(r16)
    4f1c:	1805883a 	mov	r2,r3
    4f20:	dfc00117 	ldw	ra,4(sp)
    4f24:	dc000017 	ldw	r16,0(sp)
    4f28:	dec00204 	addi	sp,sp,8
    4f2c:	f800283a 	ret
    4f30:	8080030b 	ldhu	r2,12(r16)
    4f34:	10bbffcc 	andi	r2,r2,61439
    4f38:	8080030d 	sth	r2,12(r16)
    4f3c:	1805883a 	mov	r2,r3
    4f40:	dfc00117 	ldw	ra,4(sp)
    4f44:	dc000017 	ldw	r16,0(sp)
    4f48:	dec00204 	addi	sp,sp,8
    4f4c:	f800283a 	ret

00004f50 <__swrite>:
    4f50:	2880030b 	ldhu	r2,12(r5)
    4f54:	defffb04 	addi	sp,sp,-20
    4f58:	dcc00315 	stw	r19,12(sp)
    4f5c:	1080400c 	andi	r2,r2,256
    4f60:	dc800215 	stw	r18,8(sp)
    4f64:	dc400115 	stw	r17,4(sp)
    4f68:	dc000015 	stw	r16,0(sp)
    4f6c:	3027883a 	mov	r19,r6
    4f70:	3825883a 	mov	r18,r7
    4f74:	dfc00415 	stw	ra,16(sp)
    4f78:	2821883a 	mov	r16,r5
    4f7c:	000d883a 	mov	r6,zero
    4f80:	01c00084 	movi	r7,2
    4f84:	2023883a 	mov	r17,r4
    4f88:	10000226 	beq	r2,zero,4f94 <__swrite+0x44>
    4f8c:	2940038f 	ldh	r5,14(r5)
    4f90:	000531c0 	call	531c <_lseek_r>
    4f94:	8080030b 	ldhu	r2,12(r16)
    4f98:	8140038f 	ldh	r5,14(r16)
    4f9c:	8809883a 	mov	r4,r17
    4fa0:	10bbffcc 	andi	r2,r2,61439
    4fa4:	980d883a 	mov	r6,r19
    4fa8:	900f883a 	mov	r7,r18
    4fac:	8080030d 	sth	r2,12(r16)
    4fb0:	dfc00417 	ldw	ra,16(sp)
    4fb4:	dcc00317 	ldw	r19,12(sp)
    4fb8:	dc800217 	ldw	r18,8(sp)
    4fbc:	dc400117 	ldw	r17,4(sp)
    4fc0:	dc000017 	ldw	r16,0(sp)
    4fc4:	dec00504 	addi	sp,sp,20
    4fc8:	000502c1 	jmpi	502c <_write_r>

00004fcc <__sread>:
    4fcc:	defffe04 	addi	sp,sp,-8
    4fd0:	dc000015 	stw	r16,0(sp)
    4fd4:	2821883a 	mov	r16,r5
    4fd8:	2940038f 	ldh	r5,14(r5)
    4fdc:	dfc00115 	stw	ra,4(sp)
    4fe0:	00053940 	call	5394 <_read_r>
    4fe4:	1007883a 	mov	r3,r2
    4fe8:	10000816 	blt	r2,zero,500c <__sread+0x40>
    4fec:	80801417 	ldw	r2,80(r16)
    4ff0:	10c5883a 	add	r2,r2,r3
    4ff4:	80801415 	stw	r2,80(r16)
    4ff8:	1805883a 	mov	r2,r3
    4ffc:	dfc00117 	ldw	ra,4(sp)
    5000:	dc000017 	ldw	r16,0(sp)
    5004:	dec00204 	addi	sp,sp,8
    5008:	f800283a 	ret
    500c:	8080030b 	ldhu	r2,12(r16)
    5010:	10bbffcc 	andi	r2,r2,61439
    5014:	8080030d 	sth	r2,12(r16)
    5018:	1805883a 	mov	r2,r3
    501c:	dfc00117 	ldw	ra,4(sp)
    5020:	dc000017 	ldw	r16,0(sp)
    5024:	dec00204 	addi	sp,sp,8
    5028:	f800283a 	ret

0000502c <_write_r>:
    502c:	defffd04 	addi	sp,sp,-12
    5030:	dc000015 	stw	r16,0(sp)
    5034:	040000f4 	movhi	r16,3
    5038:	8436a404 	addi	r16,r16,-9584
    503c:	dc400115 	stw	r17,4(sp)
    5040:	80000015 	stw	zero,0(r16)
    5044:	2023883a 	mov	r17,r4
    5048:	2809883a 	mov	r4,r5
    504c:	300b883a 	mov	r5,r6
    5050:	380d883a 	mov	r6,r7
    5054:	dfc00215 	stw	ra,8(sp)
    5058:	000570c0 	call	570c <write>
    505c:	1007883a 	mov	r3,r2
    5060:	00bfffc4 	movi	r2,-1
    5064:	18800626 	beq	r3,r2,5080 <_write_r+0x54>
    5068:	1805883a 	mov	r2,r3
    506c:	dfc00217 	ldw	ra,8(sp)
    5070:	dc400117 	ldw	r17,4(sp)
    5074:	dc000017 	ldw	r16,0(sp)
    5078:	dec00304 	addi	sp,sp,12
    507c:	f800283a 	ret
    5080:	80800017 	ldw	r2,0(r16)
    5084:	103ff826 	beq	r2,zero,5068 <_write_r+0x3c>
    5088:	88800015 	stw	r2,0(r17)
    508c:	1805883a 	mov	r2,r3
    5090:	dfc00217 	ldw	ra,8(sp)
    5094:	dc400117 	ldw	r17,4(sp)
    5098:	dc000017 	ldw	r16,0(sp)
    509c:	dec00304 	addi	sp,sp,12
    50a0:	f800283a 	ret

000050a4 <_close_r>:
    50a4:	defffd04 	addi	sp,sp,-12
    50a8:	dc000015 	stw	r16,0(sp)
    50ac:	040000f4 	movhi	r16,3
    50b0:	8436a404 	addi	r16,r16,-9584
    50b4:	dc400115 	stw	r17,4(sp)
    50b8:	80000015 	stw	zero,0(r16)
    50bc:	2023883a 	mov	r17,r4
    50c0:	2809883a 	mov	r4,r5
    50c4:	dfc00215 	stw	ra,8(sp)
    50c8:	0002b800 	call	2b80 <close>
    50cc:	1007883a 	mov	r3,r2
    50d0:	00bfffc4 	movi	r2,-1
    50d4:	18800626 	beq	r3,r2,50f0 <_close_r+0x4c>
    50d8:	1805883a 	mov	r2,r3
    50dc:	dfc00217 	ldw	ra,8(sp)
    50e0:	dc400117 	ldw	r17,4(sp)
    50e4:	dc000017 	ldw	r16,0(sp)
    50e8:	dec00304 	addi	sp,sp,12
    50ec:	f800283a 	ret
    50f0:	80800017 	ldw	r2,0(r16)
    50f4:	103ff826 	beq	r2,zero,50d8 <_close_r+0x34>
    50f8:	88800015 	stw	r2,0(r17)
    50fc:	1805883a 	mov	r2,r3
    5100:	dfc00217 	ldw	ra,8(sp)
    5104:	dc400117 	ldw	r17,4(sp)
    5108:	dc000017 	ldw	r16,0(sp)
    510c:	dec00304 	addi	sp,sp,12
    5110:	f800283a 	ret

00005114 <_fclose_r>:
    5114:	defffc04 	addi	sp,sp,-16
    5118:	dc400115 	stw	r17,4(sp)
    511c:	dc000015 	stw	r16,0(sp)
    5120:	dfc00315 	stw	ra,12(sp)
    5124:	dc800215 	stw	r18,8(sp)
    5128:	2821883a 	mov	r16,r5
    512c:	2023883a 	mov	r17,r4
    5130:	28002926 	beq	r5,zero,51d8 <_fclose_r+0xc4>
    5134:	0003cdc0 	call	3cdc <__sfp_lock_acquire>
    5138:	88000226 	beq	r17,zero,5144 <_fclose_r+0x30>
    513c:	88800e17 	ldw	r2,56(r17)
    5140:	10002d26 	beq	r2,zero,51f8 <_fclose_r+0xe4>
    5144:	8080030f 	ldh	r2,12(r16)
    5148:	10002226 	beq	r2,zero,51d4 <_fclose_r+0xc0>
    514c:	8809883a 	mov	r4,r17
    5150:	800b883a 	mov	r5,r16
    5154:	0003a540 	call	3a54 <_fflush_r>
    5158:	1025883a 	mov	r18,r2
    515c:	80800b17 	ldw	r2,44(r16)
    5160:	10000426 	beq	r2,zero,5174 <_fclose_r+0x60>
    5164:	81400717 	ldw	r5,28(r16)
    5168:	8809883a 	mov	r4,r17
    516c:	103ee83a 	callr	r2
    5170:	10002a16 	blt	r2,zero,521c <_fclose_r+0x108>
    5174:	8080030b 	ldhu	r2,12(r16)
    5178:	1080200c 	andi	r2,r2,128
    517c:	1000231e 	bne	r2,zero,520c <_fclose_r+0xf8>
    5180:	81400c17 	ldw	r5,48(r16)
    5184:	28000526 	beq	r5,zero,519c <_fclose_r+0x88>
    5188:	80801004 	addi	r2,r16,64
    518c:	28800226 	beq	r5,r2,5198 <_fclose_r+0x84>
    5190:	8809883a 	mov	r4,r17
    5194:	00040700 	call	4070 <_free_r>
    5198:	80000c15 	stw	zero,48(r16)
    519c:	81401117 	ldw	r5,68(r16)
    51a0:	28000326 	beq	r5,zero,51b0 <_fclose_r+0x9c>
    51a4:	8809883a 	mov	r4,r17
    51a8:	00040700 	call	4070 <_free_r>
    51ac:	80001115 	stw	zero,68(r16)
    51b0:	8000030d 	sth	zero,12(r16)
    51b4:	0003ce00 	call	3ce0 <__sfp_lock_release>
    51b8:	9005883a 	mov	r2,r18
    51bc:	dfc00317 	ldw	ra,12(sp)
    51c0:	dc800217 	ldw	r18,8(sp)
    51c4:	dc400117 	ldw	r17,4(sp)
    51c8:	dc000017 	ldw	r16,0(sp)
    51cc:	dec00404 	addi	sp,sp,16
    51d0:	f800283a 	ret
    51d4:	0003ce00 	call	3ce0 <__sfp_lock_release>
    51d8:	0025883a 	mov	r18,zero
    51dc:	9005883a 	mov	r2,r18
    51e0:	dfc00317 	ldw	ra,12(sp)
    51e4:	dc800217 	ldw	r18,8(sp)
    51e8:	dc400117 	ldw	r17,4(sp)
    51ec:	dc000017 	ldw	r16,0(sp)
    51f0:	dec00404 	addi	sp,sp,16
    51f4:	f800283a 	ret
    51f8:	8809883a 	mov	r4,r17
    51fc:	0003cec0 	call	3cec <__sinit>
    5200:	8080030f 	ldh	r2,12(r16)
    5204:	103fd11e 	bne	r2,zero,514c <_fclose_r+0x38>
    5208:	003ff206 	br	51d4 <_fclose_r+0xc0>
    520c:	81400417 	ldw	r5,16(r16)
    5210:	8809883a 	mov	r4,r17
    5214:	00040700 	call	4070 <_free_r>
    5218:	003fd906 	br	5180 <_fclose_r+0x6c>
    521c:	04bfffc4 	movi	r18,-1
    5220:	003fd406 	br	5174 <_fclose_r+0x60>

00005224 <fclose>:
    5224:	008000f4 	movhi	r2,3
    5228:	10b69604 	addi	r2,r2,-9640
    522c:	200b883a 	mov	r5,r4
    5230:	11000017 	ldw	r4,0(r2)
    5234:	00051141 	jmpi	5114 <_fclose_r>

00005238 <_fstat_r>:
    5238:	defffd04 	addi	sp,sp,-12
    523c:	dc000015 	stw	r16,0(sp)
    5240:	040000f4 	movhi	r16,3
    5244:	8436a404 	addi	r16,r16,-9584
    5248:	dc400115 	stw	r17,4(sp)
    524c:	80000015 	stw	zero,0(r16)
    5250:	2023883a 	mov	r17,r4
    5254:	2809883a 	mov	r4,r5
    5258:	300b883a 	mov	r5,r6
    525c:	dfc00215 	stw	ra,8(sp)
    5260:	00054200 	call	5420 <fstat>
    5264:	1007883a 	mov	r3,r2
    5268:	00bfffc4 	movi	r2,-1
    526c:	18800626 	beq	r3,r2,5288 <_fstat_r+0x50>
    5270:	1805883a 	mov	r2,r3
    5274:	dfc00217 	ldw	ra,8(sp)
    5278:	dc400117 	ldw	r17,4(sp)
    527c:	dc000017 	ldw	r16,0(sp)
    5280:	dec00304 	addi	sp,sp,12
    5284:	f800283a 	ret
    5288:	80800017 	ldw	r2,0(r16)
    528c:	103ff826 	beq	r2,zero,5270 <_fstat_r+0x38>
    5290:	88800015 	stw	r2,0(r17)
    5294:	1805883a 	mov	r2,r3
    5298:	dfc00217 	ldw	ra,8(sp)
    529c:	dc400117 	ldw	r17,4(sp)
    52a0:	dc000017 	ldw	r16,0(sp)
    52a4:	dec00304 	addi	sp,sp,12
    52a8:	f800283a 	ret

000052ac <_isatty_r>:
    52ac:	defffd04 	addi	sp,sp,-12
    52b0:	dc000015 	stw	r16,0(sp)
    52b4:	040000f4 	movhi	r16,3
    52b8:	8436a404 	addi	r16,r16,-9584
    52bc:	dc400115 	stw	r17,4(sp)
    52c0:	80000015 	stw	zero,0(r16)
    52c4:	2023883a 	mov	r17,r4
    52c8:	2809883a 	mov	r4,r5
    52cc:	dfc00215 	stw	ra,8(sp)
    52d0:	00054a00 	call	54a0 <isatty>
    52d4:	1007883a 	mov	r3,r2
    52d8:	00bfffc4 	movi	r2,-1
    52dc:	18800626 	beq	r3,r2,52f8 <_isatty_r+0x4c>
    52e0:	1805883a 	mov	r2,r3
    52e4:	dfc00217 	ldw	ra,8(sp)
    52e8:	dc400117 	ldw	r17,4(sp)
    52ec:	dc000017 	ldw	r16,0(sp)
    52f0:	dec00304 	addi	sp,sp,12
    52f4:	f800283a 	ret
    52f8:	80800017 	ldw	r2,0(r16)
    52fc:	103ff826 	beq	r2,zero,52e0 <_isatty_r+0x34>
    5300:	88800015 	stw	r2,0(r17)
    5304:	1805883a 	mov	r2,r3
    5308:	dfc00217 	ldw	ra,8(sp)
    530c:	dc400117 	ldw	r17,4(sp)
    5310:	dc000017 	ldw	r16,0(sp)
    5314:	dec00304 	addi	sp,sp,12
    5318:	f800283a 	ret

0000531c <_lseek_r>:
    531c:	defffd04 	addi	sp,sp,-12
    5320:	dc000015 	stw	r16,0(sp)
    5324:	040000f4 	movhi	r16,3
    5328:	8436a404 	addi	r16,r16,-9584
    532c:	dc400115 	stw	r17,4(sp)
    5330:	80000015 	stw	zero,0(r16)
    5334:	2023883a 	mov	r17,r4
    5338:	2809883a 	mov	r4,r5
    533c:	300b883a 	mov	r5,r6
    5340:	380d883a 	mov	r6,r7
    5344:	dfc00215 	stw	ra,8(sp)
    5348:	00055240 	call	5524 <lseek>
    534c:	1007883a 	mov	r3,r2
    5350:	00bfffc4 	movi	r2,-1
    5354:	18800626 	beq	r3,r2,5370 <_lseek_r+0x54>
    5358:	1805883a 	mov	r2,r3
    535c:	dfc00217 	ldw	ra,8(sp)
    5360:	dc400117 	ldw	r17,4(sp)
    5364:	dc000017 	ldw	r16,0(sp)
    5368:	dec00304 	addi	sp,sp,12
    536c:	f800283a 	ret
    5370:	80800017 	ldw	r2,0(r16)
    5374:	103ff826 	beq	r2,zero,5358 <_lseek_r+0x3c>
    5378:	88800015 	stw	r2,0(r17)
    537c:	1805883a 	mov	r2,r3
    5380:	dfc00217 	ldw	ra,8(sp)
    5384:	dc400117 	ldw	r17,4(sp)
    5388:	dc000017 	ldw	r16,0(sp)
    538c:	dec00304 	addi	sp,sp,12
    5390:	f800283a 	ret

00005394 <_read_r>:
    5394:	defffd04 	addi	sp,sp,-12
    5398:	dc000015 	stw	r16,0(sp)
    539c:	040000f4 	movhi	r16,3
    53a0:	8436a404 	addi	r16,r16,-9584
    53a4:	dc400115 	stw	r17,4(sp)
    53a8:	80000015 	stw	zero,0(r16)
    53ac:	2023883a 	mov	r17,r4
    53b0:	2809883a 	mov	r4,r5
    53b4:	300b883a 	mov	r5,r6
    53b8:	380d883a 	mov	r6,r7
    53bc:	dfc00215 	stw	ra,8(sp)
    53c0:	00055c40 	call	55c4 <read>
    53c4:	1007883a 	mov	r3,r2
    53c8:	00bfffc4 	movi	r2,-1
    53cc:	18800626 	beq	r3,r2,53e8 <_read_r+0x54>
    53d0:	1805883a 	mov	r2,r3
    53d4:	dfc00217 	ldw	ra,8(sp)
    53d8:	dc400117 	ldw	r17,4(sp)
    53dc:	dc000017 	ldw	r16,0(sp)
    53e0:	dec00304 	addi	sp,sp,12
    53e4:	f800283a 	ret
    53e8:	80800017 	ldw	r2,0(r16)
    53ec:	103ff826 	beq	r2,zero,53d0 <_read_r+0x3c>
    53f0:	88800015 	stw	r2,0(r17)
    53f4:	1805883a 	mov	r2,r3
    53f8:	dfc00217 	ldw	ra,8(sp)
    53fc:	dc400117 	ldw	r17,4(sp)
    5400:	dc000017 	ldw	r16,0(sp)
    5404:	dec00304 	addi	sp,sp,12
    5408:	f800283a 	ret

0000540c <_exit>:
    540c:	20000226 	beq	r4,zero,5418 <_exit+0xc>
    5410:	002af070 	cmpltui	zero,zero,43969
    5414:	00000106 	br	541c <_exit+0x10>
    5418:	002af0b0 	cmpltui	zero,zero,43970
    541c:	003fff06 	br	541c <_exit+0x10>

00005420 <fstat>:
    5420:	deffff04 	addi	sp,sp,-4
    5424:	dfc00015 	stw	ra,0(sp)
    5428:	20000e16 	blt	r4,zero,5464 <fstat+0x44>
    542c:	20c00324 	muli	r3,r4,12
    5430:	008000f4 	movhi	r2,3
    5434:	10b42604 	addi	r2,r2,-12136
    5438:	1889883a 	add	r4,r3,r2
    543c:	20000926 	beq	r4,zero,5464 <fstat+0x44>
    5440:	20800017 	ldw	r2,0(r4)
    5444:	10800817 	ldw	r2,32(r2)
    5448:	10000226 	beq	r2,zero,5454 <fstat+0x34>
    544c:	103ee83a 	callr	r2
    5450:	00001006 	br	5494 <fstat+0x74>
    5454:	00880004 	movi	r2,8192
    5458:	28800115 	stw	r2,4(r5)
    545c:	0005883a 	mov	r2,zero
    5460:	00000c06 	br	5494 <fstat+0x74>
    5464:	008000f4 	movhi	r2,3
    5468:	10b69304 	addi	r2,r2,-9652
    546c:	10800017 	ldw	r2,0(r2)
    5470:	1000031e 	bne	r2,zero,5480 <fstat+0x60>
    5474:	00c000f4 	movhi	r3,3
    5478:	18f6a404 	addi	r3,r3,-9584
    547c:	00000206 	br	5488 <fstat+0x68>
    5480:	103ee83a 	callr	r2
    5484:	1007883a 	mov	r3,r2
    5488:	00801444 	movi	r2,81
    548c:	18800015 	stw	r2,0(r3)
    5490:	00bfffc4 	movi	r2,-1
    5494:	dfc00017 	ldw	ra,0(sp)
    5498:	dec00104 	addi	sp,sp,4
    549c:	f800283a 	ret

000054a0 <isatty>:
    54a0:	defff004 	addi	sp,sp,-64
    54a4:	dfc00f15 	stw	ra,60(sp)
    54a8:	20000f16 	blt	r4,zero,54e8 <isatty+0x48>
    54ac:	20c00324 	muli	r3,r4,12
    54b0:	008000f4 	movhi	r2,3
    54b4:	10b42604 	addi	r2,r2,-12136
    54b8:	1885883a 	add	r2,r3,r2
    54bc:	10000a26 	beq	r2,zero,54e8 <isatty+0x48>
    54c0:	10800017 	ldw	r2,0(r2)
    54c4:	10800817 	ldw	r2,32(r2)
    54c8:	1000021e 	bne	r2,zero,54d4 <isatty+0x34>
    54cc:	00800044 	movi	r2,1
    54d0:	00001106 	br	5518 <isatty+0x78>
    54d4:	d80b883a 	mov	r5,sp
    54d8:	00054200 	call	5420 <fstat>
    54dc:	d8800117 	ldw	r2,4(sp)
    54e0:	10880020 	cmpeqi	r2,r2,8192
    54e4:	00000c06 	br	5518 <isatty+0x78>
    54e8:	008000f4 	movhi	r2,3
    54ec:	10b69304 	addi	r2,r2,-9652
    54f0:	10800017 	ldw	r2,0(r2)
    54f4:	1000031e 	bne	r2,zero,5504 <isatty+0x64>
    54f8:	00c000f4 	movhi	r3,3
    54fc:	18f6a404 	addi	r3,r3,-9584
    5500:	00000206 	br	550c <isatty+0x6c>
    5504:	103ee83a 	callr	r2
    5508:	1007883a 	mov	r3,r2
    550c:	00801444 	movi	r2,81
    5510:	18800015 	stw	r2,0(r3)
    5514:	0005883a 	mov	r2,zero
    5518:	dfc00f17 	ldw	ra,60(sp)
    551c:	dec01004 	addi	sp,sp,64
    5520:	f800283a 	ret

00005524 <lseek>:
    5524:	defffe04 	addi	sp,sp,-8
    5528:	dfc00115 	stw	ra,4(sp)
    552c:	dc000015 	stw	r16,0(sp)
    5530:	2000020e 	bge	r4,zero,553c <lseek+0x18>
    5534:	043febc4 	movi	r16,-81
    5538:	00000d06 	br	5570 <lseek+0x4c>
    553c:	20c00324 	muli	r3,r4,12
    5540:	008000f4 	movhi	r2,3
    5544:	10b42604 	addi	r2,r2,-12136
    5548:	1889883a 	add	r4,r3,r2
    554c:	20001526 	beq	r4,zero,55a4 <lseek+0x80>
    5550:	20800017 	ldw	r2,0(r4)
    5554:	10800717 	ldw	r2,28(r2)
    5558:	1000021e 	bne	r2,zero,5564 <lseek+0x40>
    555c:	043fde84 	movi	r16,-134
    5560:	00000306 	br	5570 <lseek+0x4c>
    5564:	103ee83a 	callr	r2
    5568:	1000100e 	bge	r2,zero,55ac <lseek+0x88>
    556c:	1021883a 	mov	r16,r2
    5570:	008000f4 	movhi	r2,3
    5574:	10b69304 	addi	r2,r2,-9652
    5578:	10800017 	ldw	r2,0(r2)
    557c:	1000031e 	bne	r2,zero,558c <lseek+0x68>
    5580:	00c000f4 	movhi	r3,3
    5584:	18f6a404 	addi	r3,r3,-9584
    5588:	00000206 	br	5594 <lseek+0x70>
    558c:	103ee83a 	callr	r2
    5590:	1007883a 	mov	r3,r2
    5594:	0405c83a 	sub	r2,zero,r16
    5598:	18800015 	stw	r2,0(r3)
    559c:	00bfffc4 	movi	r2,-1
    55a0:	00000206 	br	55ac <lseek+0x88>
    55a4:	043febc4 	movi	r16,-81
    55a8:	003ff106 	br	5570 <lseek+0x4c>
    55ac:	dfc00117 	ldw	ra,4(sp)
    55b0:	dc000017 	ldw	r16,0(sp)
    55b4:	dec00204 	addi	sp,sp,8
    55b8:	f800283a 	ret

000055bc <__malloc_lock>:
    55bc:	f800283a 	ret

000055c0 <__malloc_unlock>:
    55c0:	f800283a 	ret

000055c4 <read>:
    55c4:	defffe04 	addi	sp,sp,-8
    55c8:	dfc00115 	stw	ra,4(sp)
    55cc:	dc000015 	stw	r16,0(sp)
    55d0:	20002916 	blt	r4,zero,5678 <read+0xb4>
    55d4:	20c00324 	muli	r3,r4,12
    55d8:	008000f4 	movhi	r2,3
    55dc:	10b42604 	addi	r2,r2,-12136
    55e0:	1889883a 	add	r4,r3,r2
    55e4:	20002426 	beq	r4,zero,5678 <read+0xb4>
    55e8:	20800217 	ldw	r2,8(r4)
    55ec:	108000cc 	andi	r2,r2,3
    55f0:	00c00044 	movi	r3,1
    55f4:	10c01326 	beq	r2,r3,5644 <read+0x80>
    55f8:	20800017 	ldw	r2,0(r4)
    55fc:	10800517 	ldw	r2,20(r2)
    5600:	10001026 	beq	r2,zero,5644 <read+0x80>
    5604:	103ee83a 	callr	r2
    5608:	1021883a 	mov	r16,r2
    560c:	1000260e 	bge	r2,zero,56a8 <read+0xe4>
    5610:	008000f4 	movhi	r2,3
    5614:	10b69304 	addi	r2,r2,-9652
    5618:	10800017 	ldw	r2,0(r2)
    561c:	1000031e 	bne	r2,zero,562c <read+0x68>
    5620:	00c000f4 	movhi	r3,3
    5624:	18f6a404 	addi	r3,r3,-9584
    5628:	00000206 	br	5634 <read+0x70>
    562c:	103ee83a 	callr	r2
    5630:	1007883a 	mov	r3,r2
    5634:	0405c83a 	sub	r2,zero,r16
    5638:	18800015 	stw	r2,0(r3)
    563c:	043fffc4 	movi	r16,-1
    5640:	00001906 	br	56a8 <read+0xe4>
    5644:	008000f4 	movhi	r2,3
    5648:	10b69304 	addi	r2,r2,-9652
    564c:	10800017 	ldw	r2,0(r2)
    5650:	1000031e 	bne	r2,zero,5660 <read+0x9c>
    5654:	00c000f4 	movhi	r3,3
    5658:	18f6a404 	addi	r3,r3,-9584
    565c:	00000206 	br	5668 <read+0xa4>
    5660:	103ee83a 	callr	r2
    5664:	1007883a 	mov	r3,r2
    5668:	00800344 	movi	r2,13
    566c:	18800015 	stw	r2,0(r3)
    5670:	043fffc4 	movi	r16,-1
    5674:	00000c06 	br	56a8 <read+0xe4>
    5678:	008000f4 	movhi	r2,3
    567c:	10b69304 	addi	r2,r2,-9652
    5680:	10800017 	ldw	r2,0(r2)
    5684:	1000031e 	bne	r2,zero,5694 <read+0xd0>
    5688:	00c000f4 	movhi	r3,3
    568c:	18f6a404 	addi	r3,r3,-9584
    5690:	00000206 	br	569c <read+0xd8>
    5694:	103ee83a 	callr	r2
    5698:	1007883a 	mov	r3,r2
    569c:	00801444 	movi	r2,81
    56a0:	18800015 	stw	r2,0(r3)
    56a4:	043fffc4 	movi	r16,-1
    56a8:	8005883a 	mov	r2,r16
    56ac:	dfc00117 	ldw	ra,4(sp)
    56b0:	dc000017 	ldw	r16,0(sp)
    56b4:	dec00204 	addi	sp,sp,8
    56b8:	f800283a 	ret

000056bc <sbrk>:
    56bc:	000b303a 	rdctl	r5,status
    56c0:	00bfff84 	movi	r2,-2
    56c4:	2884703a 	and	r2,r5,r2
    56c8:	1001703a 	wrctl	status,r2
    56cc:	d0a01217 	ldw	r2,-32696(gp)
    56d0:	108000c4 	addi	r2,r2,3
    56d4:	00ffff04 	movi	r3,-4
    56d8:	10c6703a 	and	r3,r2,r3
    56dc:	d0e01215 	stw	r3,-32696(gp)
    56e0:	1909883a 	add	r4,r3,r4
    56e4:	00802034 	movhi	r2,128
    56e8:	10800004 	addi	r2,r2,0
    56ec:	1100032e 	bgeu	r2,r4,56fc <sbrk+0x40>
    56f0:	2801703a 	wrctl	status,r5
    56f4:	00ffffc4 	movi	r3,-1
    56f8:	00000206 	br	5704 <sbrk+0x48>
    56fc:	d1201215 	stw	r4,-32696(gp)
    5700:	2801703a 	wrctl	status,r5
    5704:	1805883a 	mov	r2,r3
    5708:	f800283a 	ret

0000570c <write>:
    570c:	defffe04 	addi	sp,sp,-8
    5710:	dfc00115 	stw	ra,4(sp)
    5714:	dc000015 	stw	r16,0(sp)
    5718:	20002816 	blt	r4,zero,57bc <write+0xb0>
    571c:	20c00324 	muli	r3,r4,12
    5720:	008000f4 	movhi	r2,3
    5724:	10b42604 	addi	r2,r2,-12136
    5728:	1889883a 	add	r4,r3,r2
    572c:	20002326 	beq	r4,zero,57bc <write+0xb0>
    5730:	20800217 	ldw	r2,8(r4)
    5734:	108000cc 	andi	r2,r2,3
    5738:	10001326 	beq	r2,zero,5788 <write+0x7c>
    573c:	20800017 	ldw	r2,0(r4)
    5740:	10800617 	ldw	r2,24(r2)
    5744:	10001026 	beq	r2,zero,5788 <write+0x7c>
    5748:	103ee83a 	callr	r2
    574c:	1021883a 	mov	r16,r2
    5750:	1000260e 	bge	r2,zero,57ec <write+0xe0>
    5754:	008000f4 	movhi	r2,3
    5758:	10b69304 	addi	r2,r2,-9652
    575c:	10800017 	ldw	r2,0(r2)
    5760:	1000031e 	bne	r2,zero,5770 <write+0x64>
    5764:	00c000f4 	movhi	r3,3
    5768:	18f6a404 	addi	r3,r3,-9584
    576c:	00000206 	br	5778 <write+0x6c>
    5770:	103ee83a 	callr	r2
    5774:	1007883a 	mov	r3,r2
    5778:	0405c83a 	sub	r2,zero,r16
    577c:	18800015 	stw	r2,0(r3)
    5780:	043fffc4 	movi	r16,-1
    5784:	00001906 	br	57ec <write+0xe0>
    5788:	008000f4 	movhi	r2,3
    578c:	10b69304 	addi	r2,r2,-9652
    5790:	10800017 	ldw	r2,0(r2)
    5794:	1000031e 	bne	r2,zero,57a4 <write+0x98>
    5798:	00c000f4 	movhi	r3,3
    579c:	18f6a404 	addi	r3,r3,-9584
    57a0:	00000206 	br	57ac <write+0xa0>
    57a4:	103ee83a 	callr	r2
    57a8:	1007883a 	mov	r3,r2
    57ac:	00800344 	movi	r2,13
    57b0:	18800015 	stw	r2,0(r3)
    57b4:	043fffc4 	movi	r16,-1
    57b8:	00000c06 	br	57ec <write+0xe0>
    57bc:	008000f4 	movhi	r2,3
    57c0:	10b69304 	addi	r2,r2,-9652
    57c4:	10800017 	ldw	r2,0(r2)
    57c8:	1000031e 	bne	r2,zero,57d8 <write+0xcc>
    57cc:	00c000f4 	movhi	r3,3
    57d0:	18f6a404 	addi	r3,r3,-9584
    57d4:	00000206 	br	57e0 <write+0xd4>
    57d8:	103ee83a 	callr	r2
    57dc:	1007883a 	mov	r3,r2
    57e0:	00801444 	movi	r2,81
    57e4:	18800015 	stw	r2,0(r3)
    57e8:	043fffc4 	movi	r16,-1
    57ec:	8005883a 	mov	r2,r16
    57f0:	dfc00117 	ldw	ra,4(sp)
    57f4:	dc000017 	ldw	r16,0(sp)
    57f8:	dec00204 	addi	sp,sp,8
    57fc:	f800283a 	ret
    5800:	000038a0 	cmpeqi	zero,zero,226
